00000000 a HEADER_ARCH
00000008 a CODE_SEG
00000010 a DATA_SEG
00000018 a HEADER_LENGTH
00000018 a TSS_SEG
00100000 t header_start
00100018 t header_end
00100018 t mmap
0010002c T _start
00100079 t after_gdt
00100097 t map_lower.loop
0010017d t hlt.loop
00100180 t kernelTooBig
0010020c t kernelBootstrapTooBig
001002ed t kernelTooBig.loop
001002f0 T _ZN5satan4arch3x8610interrupts5setup17hb6514c746db6bd34E
00108b37 T kernel_bootstrap_end
17adaf12 a HEADER_CHECKSUM
c0000000 a KERNEL_OFFSET
c0000000 KERNEL_OFFSET
c0109000 T kernel_start
c0109000 T _ZN79_$LT$spin..mutex..MutexGuard$LT$T$GT$$u20$as$u20$core..ops..deref..DerefMut$GT$9deref_mut17h8af693d4a7be9fefE
c0109020 T _ZN84_$LT$spin..mutex..Mutex$LT$$LP$$RP$$C$R$GT$$u20$as$u20$lock_api..mutex..RawMutex$GT$4lock17h9f2c3ddceceba0a4E
c0109100 T _ZN84_$LT$spin..mutex..Mutex$LT$$LP$$RP$$C$R$GT$$u20$as$u20$lock_api..mutex..RawMutex$GT$6unlock17h583f8b1d476c3c77E
c0109150 T _ZN89_$LT$spin..mutex..spin..SpinMutexGuard$LT$T$GT$$u20$as$u20$core..ops..deref..DerefMut$GT$9deref_mut17h3c39c458b8806d15E
c0109160 T _ZN4core5alloc6layout6Layout15from_size_align17h792d4482d814b3f5E
c01091c0 T _ZN4core5alloc6layout6Layout25from_size_align_unchecked17hc87e254708d3a253E
c0109210 t _ZN4core5alloc6layout6Layout25from_size_align_unchecked18precondition_check17h8491ec297a254626E
c0109260 T _ZN4core5alloc6layout6Layout4size17hcb6cb74df019bc6aE
c0109270 T _ZN4core5alloc6layout6Layout5align17h8eb08ef19111ca94E
c01092a0 T _ZN4core5alloc6layout6Layout8dangling17h09611bc576f2cd6fE
c01092e0 t _ZN5satan4arch3x866memory16kernel_virt2phys17h28e0b87a47081eccE
c0109360 T _ZN5satan4arch3x866memory12setup_paging17h7bb9f0fc24ad8208E
c01096b0 t _ZN5satan4arch3x866memory13kernel_offset17hc758f4503dbe5338E
c0109710 t _ZN5satan4arch3x866memory10kernel_end17h2fafe24dd8e28f63E
c0109770 T _ZN4core3ptr6unique15Unique$LT$T$GT$15as_non_null_ptr17hba86bedb26328554E
c0109780 T _ZN4core3ptr6unique15Unique$LT$T$GT$4cast17hfa765e556be5f842E
c01097a0 T _ZN4core9ub_checks17check_language_ub17h9deb2d2598166833E
c01097d0 t _ZN4core9ub_checks17check_language_ub7runtime17h6f3b5f4173ec9905E
c01097e0 T _ZN4core9ub_checks23maybe_is_nonoverlapping17h1019f25783fc2650E
c0109840 t _ZN4core9ub_checks23maybe_is_nonoverlapping7runtime17hf5728ec3b1546462E
c0109900 T _ZN4core9ub_checks24is_valid_allocation_size17h89b965e7e659112cE
c0109980 T _ZN4core9ub_checks29maybe_is_aligned_and_not_null17h1ce90560c6cc82f3E
c01099e0 t _ZN4core9ub_checks29maybe_is_aligned_and_not_null7runtime17h3dbb5413103830d4E
c0109a60 t _ZN4core4char7methods15encode_utf8_raw17hc10831b6f3ca7315E
c0109b50 T _ZN4core4char7methods22_$LT$impl$u20$char$GT$11encode_utf817h3cf95232e283ec6eE
c0109ba0 t _ZN4core4char7methods25encode_utf8_raw_unchecked17hd6cc28e9f6485538E
c0109e50 t _ZN4core4char7methods8len_utf817h809193043bc308adE
c0109eb0 T _ZN4core3ptr9alignment9Alignment10as_nonzero17h815aa1acd0e5c200E
c0109ec0 T _ZN4core3ptr9alignment9Alignment8as_usize17hbc90b0b9b676694bE
c0109ed0 T _ZN4talc9ptr_utils11align_up_by17h512eb1c53adf0261E
c010a000 T _ZN4spin6rwlock19RwLock$LT$T$C$R$GT$5write17h8ac19ae52d419043E
c010a140 T _ZN5alloc7raw_vec19RawVec$LT$T$C$A$GT$3ptr17h1fc8255981b0481bE
c010a160 T _ZN5alloc7raw_vec19RawVec$LT$T$C$A$GT$8capacity17he3a06e30ac96dd53E
c010a190 T _ZN5alloc7raw_vec19RawVec$LT$T$C$A$GT$8grow_one17h1776caad73ca462aE
c010a1d0 t _ZN5alloc7raw_vec20RawVecInner$LT$A$GT$3ptr17hcdd0a1ec5e0e918bE
c010a200 t _ZN5alloc7raw_vec20RawVecInner$LT$A$GT$8non_null17h6e12dc5d4479eeadE
c010a240 T _ZN4core4sync6atomic10AtomicBool21compare_exchange_weak17h51b9482c627201feE
c010a310 T _ZN4core4sync6atomic10AtomicBool4load17h0d58332a6daa0e3dE
c010a350 T _ZN4core4sync6atomic10AtomicBool5store17h7f2a0c6fc7949bc6E
c010a3a0 T _ZN4core4sync6atomic11AtomicUsize21compare_exchange_weak17h81495b56dd4a7a59E
c010a400 T _ZN4core4sync6atomic11AtomicUsize3new17h585c5f731196eea0E
c010a420 T _ZN4core4sync6atomic11AtomicUsize4load17hdd50d3f2f56f8936E
c010a450 T _ZN4core4sync6atomic11AtomicUsize9fetch_and17h45beeb41e75ff94aE
c010a490 T _ZN4core4sync6atomic14spin_loop_hint17hf7e984e858776588E
c010a4b0 T _ZN4talc4talc11bin_of_size17h4183b5d4849f67dcE
c010a7c0 T _ZN4talc4talc12is_gap_below17hb92af098ea94bf94E
c010a810 T _ZN4talc4talc13is_chunk_size17h7ccdc142718b765cE
c010a910 t _ZN4talc4talc16gap_acme_to_size17heef5e78b2033d4abE
c010a980 T _ZN4talc4talc16gap_base_to_node17h74b49927f32b9111E
c010a9f0 T _ZN4talc4talc16gap_base_to_size17h5633320843faad21E
c010aa60 T _ZN4talc4talc16gap_node_to_base17h1247f8246947ecadE
c010aae0 T _ZN4talc4talc16gap_node_to_size17h534b62f910edc85cE
c010aba0 T _ZN4talc4talc18tag_from_alloc_ptr17h31288429e3a8ed7fE
c010ac80 T _ZN4talc4talc21gap_acme_to_base_size17ha8769619c5cd9f9eE
c010ad20 T _ZN4core3ptr8metadata18from_raw_parts_mut17h1c1ada785f77a785E
c010ad30 T _ZN4core3ptr8metadata18from_raw_parts_mut17h4912f0b1572f392aE
c010ad40 T _ZN4core4sync6atomic10atomic_and17h32dad7f1bb560817E
c010aec0 T _ZN4core4sync6atomic28atomic_compare_exchange_weak17h960a6a282a114305E
c010b300 T _ZN4core4sync6atomic28atomic_compare_exchange_weak17he49bf49e11aa9d8aE
c010b750 T _ZN4core5slice3raw18from_raw_parts_mut17h9e5525f3acf5b687E
c010b7d0 T _ZN4core5slice3raw18from_raw_parts_mut17hcd2aa491366aa4b0E
c010b850 T _ZN4core3fmt2rt8Argument4none17h7dc646d4a7119e8cE
c010b860 T _ZN4core3fmt2rt9UnsafeArg3new17hbacfaed9f1f59966E
c010b870 T _ZN145_$LT$core..option..Option$LT$T$GT$$u20$as$u20$core..ops..try_trait..FromResidual$LT$core..option..Option$LT$core..convert..Infallible$GT$$GT$$GT$13from_residual17h4bbb916b02865fcaE
c010b890 T _ZN145_$LT$core..option..Option$LT$T$GT$$u20$as$u20$core..ops..try_trait..FromResidual$LT$core..option..Option$LT$core..convert..Infallible$GT$$GT$$GT$13from_residual17h6d9f885e78f2367aE
c010b8b0 T _ZN145_$LT$core..option..Option$LT$T$GT$$u20$as$u20$core..ops..try_trait..FromResidual$LT$core..option..Option$LT$core..convert..Infallible$GT$$GT$$GT$13from_residual17hb6cbc69400ff9969E
c010b8d0 T _ZN145_$LT$core..option..Option$LT$T$GT$$u20$as$u20$core..ops..try_trait..FromResidual$LT$core..option..Option$LT$core..convert..Infallible$GT$$GT$$GT$13from_residual17hca8fe49383c10b5eE
c010b8f0 T _ZN4core6option15Option$LT$T$GT$5ok_or17h3c03604692ff57a5E
c010b990 T _ZN4core6option15Option$LT$T$GT$6expect17he5a044a974214bfbE
c010ba40 T _ZN75_$LT$core..option..Option$LT$T$GT$$u20$as$u20$core..ops..try_trait..Try$GT$6branch17h31ea33a67bcb7195E
c010bb10 T _ZN75_$LT$core..option..Option$LT$T$GT$$u20$as$u20$core..ops..try_trait..Try$GT$6branch17h44f5e2083aa2b56dE
c010bb80 T _ZN75_$LT$core..option..Option$LT$T$GT$$u20$as$u20$core..ops..try_trait..Try$GT$6branch17habe6ac87e92baeb3E
c010bc20 T _ZN75_$LT$core..option..Option$LT$T$GT$$u20$as$u20$core..ops..try_trait..Try$GT$6branch17hf92fca4dc08d65b4E
c010bc90 t _ZN5satan4arch3x8612early_logger9Character3new17hdfa816fb8bbaef05E
c010bca0 t _ZN5satan4arch3x8612early_logger6Writer9set_color17h302c98ad560639f4E
c010bcc0 t _ZN5satan4arch3x8612early_logger6Writer5write17h94af9ddb869ca9a4E
c010be50 t _ZN5satan4arch3x8612early_logger6Writer8new_line17ha54a1f21bee58935E
c010c110 t _ZN5satan4arch3x8612early_logger6Writer9clear_row17hed3707c30108f800E
c010c290 T _ZN75_$LT$satan..arch..x86..early_logger..Writer$u20$as$u20$core..fmt..Write$GT$9write_str17hdba5a0f33a9a7ef7E
c010c360 T _ZN96_$LT$satan..arch..x86..early_logger..EarlyLogger$u20$as$u20$satan..arch..traits..LoggerTrait$GT$6_print17h71da339c6ea027f0E
c010c4f0 T _ZN96_$LT$satan..arch..x86..early_logger..EarlyLogger$u20$as$u20$satan..arch..traits..LoggerTrait$GT$6_panic17hd25ddd66da0615f0E
c010c6c0 T ksetup
c010c8e0 t _ZN11memory_addr10align_down17h7abc2f811d2bcb8dE
c010c940 T _ZN11memory_addr13align_down_4k17hd11ecc40ce057e34E
c010c970 T _ZN11memory_addr8align_up17ha95b5364ef3a7f37E
c010ca10 t _ZN5satan4arch3x8610interrupts6enable17he360581f69b863ecE
c010ca20 T _ZN5satan4arch3x8610interrupts7disable17h01fa4e8d8b573113E
c010ca30 t _ZN5satan4arch3x8610interrupts17interrupt_handler17hc037c63d46be883aE
c010cf60 t _ZN5satan4arch3x8610interrupts13IDTDescriptor3new17h6dd5acba06da79caE
c010cfa0 t _ZN5satan4arch3x8610interrupts8int_0x0017hf53a620562cf8aebE
c010cff0 t _ZN5satan4arch3x8610interrupts8int_0x0117h101b51ed8359680fE
c010d040 t _ZN5satan4arch3x8610interrupts8int_0x0217heb27eef7dadb29deE
c010d090 t _ZN5satan4arch3x8610interrupts8int_0x0317he99d6291a0f170cdE
c010d0e0 t _ZN5satan4arch3x8610interrupts8int_0x0417ha08b4b6f44f92374E
c010d130 t _ZN5satan4arch3x8610interrupts8int_0x0517h7fc586d0bbce79d9E
c010d180 t _ZN5satan4arch3x8610interrupts8int_0x0617hf6384df8d02474f3E
c010d1d0 t _ZN5satan4arch3x8610interrupts8int_0x0717h01aa3bb3bb887a58E
c010d220 t _ZN5satan4arch3x8610interrupts8int_0x0817h5cecee986b1557bdE
c010d270 t _ZN5satan4arch3x8610interrupts8int_0x0917hc65e35b71d00d777E
c010d2c0 t _ZN5satan4arch3x8610interrupts8int_0x0a17h6826d6ce26a16cf3E
c010d310 t _ZN5satan4arch3x8610interrupts8int_0x0b17hf5ec240798becd70E
c010d360 t _ZN5satan4arch3x8610interrupts8int_0x0c17h208caf5b43c23c4eE
c010d3b0 t _ZN5satan4arch3x8610interrupts8int_0x0d17h931e5c3a0493a97cE
c010d400 t _ZN5satan4arch3x8610interrupts8int_0x0e17h182c4ad876936714E
c010d450 t _ZN5satan4arch3x8610interrupts8int_0x0f17h183993e156602b16E
c010d4a0 t _ZN5satan4arch3x8610interrupts8int_0x1017hac846b848ce06b3bE
c010d4f0 t _ZN5satan4arch3x8610interrupts8int_0x1117he047aab4a67592e7E
c010d540 t _ZN5satan4arch3x8610interrupts8int_0x1217h991b8fa63ce2d0a9E
c010d590 t _ZN5satan4arch3x8610interrupts8int_0x1317h2881482d191f4e86E
c010d5e0 t _ZN5satan4arch3x8610interrupts8int_0x1417hf85353b49d52fb4bE
c010d630 t _ZN5satan4arch3x8610interrupts8int_0x1517h963c13571082e89bE
c010d680 t _ZN5satan4arch3x8610interrupts8int_0x1617h23162977f43f5457E
c010d6d0 t _ZN5satan4arch3x8610interrupts8int_0x1717hff34246b575f68c1E
c010d720 t _ZN5satan4arch3x8610interrupts8int_0x1817ha86a593b7e77dd03E
c010d770 t _ZN5satan4arch3x8610interrupts8int_0x1917h23737919687c2c45E
c010d7c0 t _ZN5satan4arch3x8610interrupts8int_0x1a17h82914b8a5dd5e978E
c010d810 t _ZN5satan4arch3x8610interrupts8int_0x1b17hd87a5106513203f9E
c010d860 t _ZN5satan4arch3x8610interrupts8int_0x1c17hd983bfed5c20f63dE
c010d8b0 t _ZN5satan4arch3x8610interrupts8int_0x1d17hc23ec23aada88b9bE
c010d900 t _ZN5satan4arch3x8610interrupts8int_0x1e17h93d6115a4a91ebe5E
c010d950 t _ZN5satan4arch3x8610interrupts8int_0x1f17h1cd124dd6830c3f9E
c010d9a0 t _ZN5satan4arch3x8610interrupts8int_0x2017hd373dae1ee34f815E
c010da00 t _ZN5satan4arch3x8610interrupts8int_0x2117he62384f0d3263270E
c010da60 t _ZN5satan4arch3x8610interrupts8int_0x2217hb722dffcb4799419E
c010dac0 t _ZN5satan4arch3x8610interrupts8int_0x2317h475014f380d11aabE
c010db20 t _ZN5satan4arch3x8610interrupts8int_0x2417h1e275e1e483a9a36E
c010db80 t _ZN5satan4arch3x8610interrupts8int_0x2517h7c1a17df0c43d71cE
c010dbe0 t _ZN5satan4arch3x8610interrupts8int_0x2617h87aa7dc6d7f42409E
c010dc40 t _ZN5satan4arch3x8610interrupts8int_0x2717h536daea597173fb0E
c010dca0 t _ZN5satan4arch3x8610interrupts8int_0x2817he641431b16f6ccbbE
c010dd20 t _ZN5satan4arch3x8610interrupts8int_0x2917ha22eedec30955436E
c010dda0 t _ZN5satan4arch3x8610interrupts8int_0x2a17h33cb96e1e2a4664eE
c010de20 t _ZN5satan4arch3x8610interrupts8int_0x2b17h5183366d0ffa018eE
c010dea0 t _ZN5satan4arch3x8610interrupts8int_0x2c17h050c312df58ca383E
c010df20 t _ZN5satan4arch3x8610interrupts8int_0x2d17hac87a43b72ac2f61E
c010dfa0 t _ZN5satan4arch3x8610interrupts8int_0x2e17h0d2337ad3b4fe5aaE
c010e020 t _ZN5satan4arch3x8610interrupts8int_0x2f17h4525f33c0ec96938E
c010e0a0 t _ZN5satan4arch3x8610interrupts8int_0x3017hd7993990a2fc9d3cE
c010e0f0 t _ZN5satan4arch3x8610interrupts8int_0x3117h22f0b3de148aea31E
c010e140 t _ZN5satan4arch3x8610interrupts8int_0x3217h716e312b13bf87b7E
c010e190 t _ZN5satan4arch3x8610interrupts8int_0x3317h0c4530d1c51051cfE
c010e1e0 t _ZN5satan4arch3x8610interrupts8int_0x3417he59c8fd874ba3651E
c010e230 t _ZN5satan4arch3x8610interrupts8int_0x3517hb6f961bfd1a72f7eE
c010e280 t _ZN5satan4arch3x8610interrupts8int_0x3617h492a24b2622f6a4cE
c010e2d0 t _ZN5satan4arch3x8610interrupts8int_0x3717h83ab3485b55b8a7bE
c010e320 t _ZN5satan4arch3x8610interrupts8int_0x3817h6720673b58a76ab5E
c010e370 t _ZN5satan4arch3x8610interrupts8int_0x3917h5d3347799b78aeddE
c010e3c0 t _ZN5satan4arch3x8610interrupts8int_0x3a17h05567baae2bebde5E
c010e410 t _ZN5satan4arch3x8610interrupts8int_0x3b17h99435488a6f430daE
c010e460 t _ZN5satan4arch3x8610interrupts8int_0x3c17hb667d5c55b0e6dd3E
c010e4b0 t _ZN5satan4arch3x8610interrupts8int_0x3d17h86663aad9ba01314E
c010e500 t _ZN5satan4arch3x8610interrupts8int_0x3e17h92e490715af4e123E
c010e550 t _ZN5satan4arch3x8610interrupts8int_0x3f17h87011a58b188d1c4E
c010e5a0 t _ZN5satan4arch3x8610interrupts8int_0x4017h122c9df032e3cdaeE
c010e5f0 t _ZN5satan4arch3x8610interrupts8int_0x4117h0dcee49f2c0f214eE
c010e640 t _ZN5satan4arch3x8610interrupts8int_0x4217h31e213d69662dd6bE
c010e690 t _ZN5satan4arch3x8610interrupts8int_0x4317h06c3fff56f9af148E
c010e6e0 t _ZN5satan4arch3x8610interrupts8int_0x4417h38364e234e278a5bE
c010e730 t _ZN5satan4arch3x8610interrupts8int_0x4517h66c72bb8f4070782E
c010e780 t _ZN5satan4arch3x8610interrupts8int_0x4617h4938eb4b2370cbb1E
c010e7d0 t _ZN5satan4arch3x8610interrupts8int_0x4717h1fb0bf3d1dca7c19E
c010e820 t _ZN5satan4arch3x8610interrupts8int_0x4817ha44de10330c61e18E
c010e870 t _ZN5satan4arch3x8610interrupts8int_0x4917h0e812bed7d54e178E
c010e8c0 t _ZN5satan4arch3x8610interrupts8int_0x4a17h20fff9db85ab2cfcE
c010e910 t _ZN5satan4arch3x8610interrupts8int_0x4b17hab3840bc2fdd291cE
c010e960 t _ZN5satan4arch3x8610interrupts8int_0x4c17hb16d37f55473521aE
c010e9b0 t _ZN5satan4arch3x8610interrupts8int_0x4d17hdb5d2e2887ff67f2E
c010ea00 t _ZN5satan4arch3x8610interrupts8int_0x4e17h881b6b4a9409ae66E
c010ea50 t _ZN5satan4arch3x8610interrupts8int_0x4f17h1d94757dffe9ad21E
c010eaa0 t _ZN5satan4arch3x8610interrupts8int_0x5017h514879163c392442E
c010eaf0 t _ZN5satan4arch3x8610interrupts8int_0x5117hed4dc9f8106371b1E
c010eb40 t _ZN5satan4arch3x8610interrupts8int_0x5217h72eb9ff8555dca15E
c010eb90 t _ZN5satan4arch3x8610interrupts8int_0x5317h6d0a97aa4435f4d6E
c010ebe0 t _ZN5satan4arch3x8610interrupts8int_0x5417h0f4156e1aabf9d04E
c010ec30 t _ZN5satan4arch3x8610interrupts8int_0x5517h58c110b5d9ae395cE
c010ec80 t _ZN5satan4arch3x8610interrupts8int_0x5617hfdd9b76aaa955358E
c010ecd0 t _ZN5satan4arch3x8610interrupts8int_0x5717h62453933240aef64E
c010ed20 t _ZN5satan4arch3x8610interrupts8int_0x5817h0bcba9582f22294aE
c010ed70 t _ZN5satan4arch3x8610interrupts8int_0x5917h423c4803229be690E
c010edc0 t _ZN5satan4arch3x8610interrupts8int_0x5a17h3d1b964125483962E
c010ee10 t _ZN5satan4arch3x8610interrupts8int_0x5b17hd5ef3b92cfed60deE
c010ee60 t _ZN5satan4arch3x8610interrupts8int_0x5c17h68331b4c0e85382fE
c010eeb0 t _ZN5satan4arch3x8610interrupts8int_0x5d17hc7b359b17af290d8E
c010ef00 t _ZN5satan4arch3x8610interrupts8int_0x5e17had001cfd530cb193E
c010ef50 t _ZN5satan4arch3x8610interrupts8int_0x5f17ha96d3aacbf006de4E
c010efa0 t _ZN5satan4arch3x8610interrupts8int_0x6017h0bc8a717dc55fcd7E
c010eff0 t _ZN5satan4arch3x8610interrupts8int_0x6117had2de8e93adeffcbE
c010f040 t _ZN5satan4arch3x8610interrupts8int_0x6217h7de708160e826596E
c010f090 t _ZN5satan4arch3x8610interrupts8int_0x6317h7bf61015cde7ad38E
c010f0e0 t _ZN5satan4arch3x8610interrupts8int_0x6417hab547aded32939c1E
c010f130 t _ZN5satan4arch3x8610interrupts8int_0x6517h0e928fabe1407d09E
c010f180 t _ZN5satan4arch3x8610interrupts8int_0x6617h989d80f03595e1b3E
c010f1d0 t _ZN5satan4arch3x8610interrupts8int_0x6717h2b56a52c0a54d3ddE
c010f220 t _ZN5satan4arch3x8610interrupts8int_0x6817h1604c9db947b8287E
c010f270 t _ZN5satan4arch3x8610interrupts8int_0x6917h886edf1e1b83b0bfE
c010f2c0 t _ZN5satan4arch3x8610interrupts8int_0x6a17he83fe759a0959a33E
c010f310 t _ZN5satan4arch3x8610interrupts8int_0x6b17h3d0f8bc1e3fd3072E
c010f360 t _ZN5satan4arch3x8610interrupts8int_0x6c17hcafa2e6a804e5ce7E
c010f3b0 t _ZN5satan4arch3x8610interrupts8int_0x6d17h1f4de1dab451774eE
c010f400 t _ZN5satan4arch3x8610interrupts8int_0x6e17h875a07192a0566f0E
c010f450 t _ZN5satan4arch3x8610interrupts8int_0x6f17h56ca0a01b1aa8b7bE
c010f4a0 t _ZN5satan4arch3x8610interrupts8int_0x7017h5aa34716a96520f1E
c010f4f0 t _ZN5satan4arch3x8610interrupts8int_0x7117hd6610aab7900c311E
c010f540 t _ZN5satan4arch3x8610interrupts8int_0x7217h868ddb8b67c36b21E
c010f590 t _ZN5satan4arch3x8610interrupts8int_0x7317he313f5fad3aa8407E
c010f5e0 t _ZN5satan4arch3x8610interrupts8int_0x7417h0b18b362ce33a892E
c010f630 t _ZN5satan4arch3x8610interrupts8int_0x7517h92a188374fbf70f7E
c010f680 t _ZN5satan4arch3x8610interrupts8int_0x7617h7c622a7dede006b0E
c010f6d0 t _ZN5satan4arch3x8610interrupts8int_0x7717hb3c62514610b6023E
c010f720 t _ZN5satan4arch3x8610interrupts8int_0x7817hd97363f1416d1ed8E
c010f770 t _ZN5satan4arch3x8610interrupts8int_0x7917h57f45e6717402896E
c010f7c0 t _ZN5satan4arch3x8610interrupts8int_0x7a17h3e59ed26e43b5348E
c010f810 t _ZN5satan4arch3x8610interrupts8int_0x7b17hf4d80e6d74942691E
c010f860 t _ZN5satan4arch3x8610interrupts8int_0x7c17h8dcc7b7cf1f7146dE
c010f8b0 t _ZN5satan4arch3x8610interrupts8int_0x7d17ha11f84026910d86dE
c010f900 t _ZN5satan4arch3x8610interrupts8int_0x7e17h950dcd5b1a379be8E
c010f950 t _ZN5satan4arch3x8610interrupts8int_0x7f17he9ee77fcfa0e6187E
c010f9a0 t _ZN5satan4arch3x8610interrupts8int_0x8017h5c7e725882f263ffE
c010f9f0 t _ZN5satan4arch3x8610interrupts8int_0x8117hbf8027fa7752f130E
c010fa40 t _ZN5satan4arch3x8610interrupts8int_0x8217hdc76f770f3eefaf1E
c010fa90 t _ZN5satan4arch3x8610interrupts8int_0x8317he48f20b791d43f99E
c010fae0 t _ZN5satan4arch3x8610interrupts8int_0x8417hdfbe02208391c2b8E
c010fb30 t _ZN5satan4arch3x8610interrupts8int_0x8517h6580b5de4a79bc97E
c010fb80 t _ZN5satan4arch3x8610interrupts8int_0x8617h3da9446c32f573ffE
c010fbd0 t _ZN5satan4arch3x8610interrupts8int_0x8717ha2f80c4b7677bf20E
c010fc20 t _ZN5satan4arch3x8610interrupts8int_0x8817h8ed91d1bcb462c76E
c010fc70 t _ZN5satan4arch3x8610interrupts8int_0x8917h24dc62dd61a6d16fE
c010fcc0 t _ZN5satan4arch3x8610interrupts8int_0x8a17hde1473a9f0da054eE
c010fd10 t _ZN5satan4arch3x8610interrupts8int_0x8b17hf7f6b6b54687f046E
c010fd60 t _ZN5satan4arch3x8610interrupts8int_0x8c17hca4177ff40cda9d1E
c010fdb0 t _ZN5satan4arch3x8610interrupts8int_0x8d17he9964d71e75c4d49E
c010fe00 t _ZN5satan4arch3x8610interrupts8int_0x8e17h0ac572341567a6fbE
c010fe50 t _ZN5satan4arch3x8610interrupts8int_0x8f17h6f024abe2013ad90E
c010fea0 t _ZN5satan4arch3x8610interrupts8int_0x9017h5437fd3b505a6e48E
c010fef0 t _ZN5satan4arch3x8610interrupts8int_0x9117hfd88330641357d62E
c010ff40 t _ZN5satan4arch3x8610interrupts8int_0x9217h3ad50092fe2d44f6E
c010ff90 t _ZN5satan4arch3x8610interrupts8int_0x9317ha69043c219c60e3bE
c010ffe0 t _ZN5satan4arch3x8610interrupts8int_0x9417h84aab6d0ef2359bbE
c0110030 t _ZN5satan4arch3x8610interrupts8int_0x9517h4e9acff0f61a61b6E
c0110080 t _ZN5satan4arch3x8610interrupts8int_0x9617h067052c2d0d54388E
c01100d0 t _ZN5satan4arch3x8610interrupts8int_0x9717h9b9d9012e8bb7e3bE
c0110120 t _ZN5satan4arch3x8610interrupts8int_0x9817h55a5af81c729538eE
c0110170 t _ZN5satan4arch3x8610interrupts8int_0x9917hf2c9121a6a181136E
c01101c0 t _ZN5satan4arch3x8610interrupts8int_0x9a17hb5be5e055dc6bde5E
c0110210 t _ZN5satan4arch3x8610interrupts8int_0x9b17h789f79310afff8f4E
c0110260 t _ZN5satan4arch3x8610interrupts8int_0x9c17hca48138f826f38cdE
c01102b0 t _ZN5satan4arch3x8610interrupts8int_0x9d17h32cb0af8027207dcE
c0110300 t _ZN5satan4arch3x8610interrupts8int_0x9e17hb0d5686f0576052aE
c0110350 t _ZN5satan4arch3x8610interrupts8int_0x9f17h6d1aba934c13c691E
c01103a0 t _ZN5satan4arch3x8610interrupts8int_0xa017h57d1f43a8546efb1E
c01103f0 t _ZN5satan4arch3x8610interrupts8int_0xa117h45118f2d1293d7fdE
c0110440 t _ZN5satan4arch3x8610interrupts8int_0xa217ha130c8d80d6d1946E
c0110490 t _ZN5satan4arch3x8610interrupts8int_0xa317hc38705ac5d176100E
c01104e0 t _ZN5satan4arch3x8610interrupts8int_0xa417h95814ec2b7836851E
c0110530 t _ZN5satan4arch3x8610interrupts8int_0xa517h5f6d059ad43b3a1bE
c0110580 t _ZN5satan4arch3x8610interrupts8int_0xa617h2771a35de1c0d0d2E
c01105d0 t _ZN5satan4arch3x8610interrupts8int_0xa717h86834cac042e2f40E
c0110620 t _ZN5satan4arch3x8610interrupts8int_0xa817he616d0904a8987f6E
c0110670 t _ZN5satan4arch3x8610interrupts8int_0xa917he900c353ac7dcf82E
c01106c0 t _ZN5satan4arch3x8610interrupts8int_0xaa17hb4096d36776d4981E
c0110710 t _ZN5satan4arch3x8610interrupts8int_0xab17he45c5838b6efd601E
c0110760 t _ZN5satan4arch3x8610interrupts8int_0xac17h85d107573f114c54E
c01107b0 t _ZN5satan4arch3x8610interrupts8int_0xad17h3c4fb7428c1e0f32E
c0110800 t _ZN5satan4arch3x8610interrupts8int_0xae17h0835f7895b45c6afE
c0110850 t _ZN5satan4arch3x8610interrupts8int_0xaf17h76931612680b9486E
c01108a0 t _ZN5satan4arch3x8610interrupts8int_0xb017h16b31a322066f097E
c01108f0 t _ZN5satan4arch3x8610interrupts8int_0xb117hec2430138c09c2e2E
c0110940 t _ZN5satan4arch3x8610interrupts8int_0xb217h4b101654530f48e7E
c0110990 t _ZN5satan4arch3x8610interrupts8int_0xb317h12285f205df5e289E
c01109e0 t _ZN5satan4arch3x8610interrupts8int_0xb417h5da1090464e9ea30E
c0110a30 t _ZN5satan4arch3x8610interrupts8int_0xb517h25f38d203d29151aE
c0110a80 t _ZN5satan4arch3x8610interrupts8int_0xb617hb76ce7d2d1e87d4dE
c0110ad0 t _ZN5satan4arch3x8610interrupts8int_0xb717h877792a555425692E
c0110b20 t _ZN5satan4arch3x8610interrupts8int_0xb817h6603d221e9f72e41E
c0110b70 t _ZN5satan4arch3x8610interrupts8int_0xb917h5bf4a05f97cc3ef5E
c0110bc0 t _ZN5satan4arch3x8610interrupts8int_0xba17hdf746746a9f2f229E
c0110c10 t _ZN5satan4arch3x8610interrupts8int_0xbb17hf294358c9f10b07fE
c0110c60 t _ZN5satan4arch3x8610interrupts8int_0xbc17h9237704b08fb185eE
c0110cb0 t _ZN5satan4arch3x8610interrupts8int_0xbd17heed7e51e02b9f581E
c0110d00 t _ZN5satan4arch3x8610interrupts8int_0xbe17hdc1b063075682cc6E
c0110d50 t _ZN5satan4arch3x8610interrupts8int_0xbf17hac1eef3b475e5ce0E
c0110da0 t _ZN5satan4arch3x8610interrupts8int_0xc017h7c84151bc1349a81E
c0110df0 t _ZN5satan4arch3x8610interrupts8int_0xc117h14dd5c694c97bad8E
c0110e40 t _ZN5satan4arch3x8610interrupts8int_0xc217h33b846adf39187c8E
c0110e90 t _ZN5satan4arch3x8610interrupts8int_0xc317h6b0dea05192c39e5E
c0110ee0 t _ZN5satan4arch3x8610interrupts8int_0xc417hb7c3eeb638a6994dE
c0110f30 t _ZN5satan4arch3x8610interrupts8int_0xc517h7c729d05ea6f0ca4E
c0110f80 t _ZN5satan4arch3x8610interrupts8int_0xc617h037386a260bf1a53E
c0110fd0 t _ZN5satan4arch3x8610interrupts8int_0xc717h6a5134072f06b89fE
c0111020 t _ZN5satan4arch3x8610interrupts8int_0xc817hafe3026191654f0dE
c0111070 t _ZN5satan4arch3x8610interrupts8int_0xc917h06b12bca5e6686bbE
c01110c0 t _ZN5satan4arch3x8610interrupts8int_0xca17hf70cb4157ce19977E
c0111110 t _ZN5satan4arch3x8610interrupts8int_0xcb17hcdef59b5f3613c13E
c0111160 t _ZN5satan4arch3x8610interrupts8int_0xcc17h559121adf9ea06caE
c01111b0 t _ZN5satan4arch3x8610interrupts8int_0xcd17h11aec2e0c550600aE
c0111200 t _ZN5satan4arch3x8610interrupts8int_0xce17h148606a3c20886bcE
c0111250 t _ZN5satan4arch3x8610interrupts8int_0xcf17hd08fda5ad9ef6fa5E
c01112a0 t _ZN5satan4arch3x8610interrupts8int_0xd017hfba5e60d84a72de0E
c01112f0 t _ZN5satan4arch3x8610interrupts8int_0xd117h4edcd7f63ae48a8dE
c0111340 t _ZN5satan4arch3x8610interrupts8int_0xd217hf5fbb00d67516bd2E
c0111390 t _ZN5satan4arch3x8610interrupts8int_0xd317h6949bbeb37ef67e9E
c01113e0 t _ZN5satan4arch3x8610interrupts8int_0xd417h8aa75217fe1773efE
c0111430 t _ZN5satan4arch3x8610interrupts8int_0xd517hffe5353bd786a394E
c0111480 t _ZN5satan4arch3x8610interrupts8int_0xd617hf76289e48b5761b2E
c01114d0 t _ZN5satan4arch3x8610interrupts8int_0xd717h34d995ce1947d101E
c0111520 t _ZN5satan4arch3x8610interrupts8int_0xd817h617da10583338169E
c0111570 t _ZN5satan4arch3x8610interrupts8int_0xd917he0642ddc1aaaf024E
c01115c0 t _ZN5satan4arch3x8610interrupts8int_0xda17hb07796f1b9743769E
c0111610 t _ZN5satan4arch3x8610interrupts8int_0xdb17he63e721d96513455E
c0111660 t _ZN5satan4arch3x8610interrupts8int_0xdc17ha4fc003018763bdcE
c01116b0 t _ZN5satan4arch3x8610interrupts8int_0xdd17h59b41bf09a3c2847E
c0111700 t _ZN5satan4arch3x8610interrupts8int_0xde17h563173775f7c529bE
c0111750 t _ZN5satan4arch3x8610interrupts8int_0xdf17hdeddf1ccf1306812E
c01117a0 t _ZN5satan4arch3x8610interrupts8int_0xe017h973036d8d1770321E
c01117f0 t _ZN5satan4arch3x8610interrupts8int_0xe117he2c556f161508a84E
c0111840 t _ZN5satan4arch3x8610interrupts8int_0xe217hce31df17e20ef69dE
c0111890 t _ZN5satan4arch3x8610interrupts8int_0xe317hcfc4dbb0efcbacc5E
c01118e0 t _ZN5satan4arch3x8610interrupts8int_0xe417haf455e019b09f34bE
c0111930 t _ZN5satan4arch3x8610interrupts8int_0xe517hc078a51bddb93db6E
c0111980 t _ZN5satan4arch3x8610interrupts8int_0xe617h4fff549ee8f4e0faE
c01119d0 t _ZN5satan4arch3x8610interrupts8int_0xe717ha7cff81089f6e541E
c0111a20 t _ZN5satan4arch3x8610interrupts8int_0xe817he84c781ee29e1ce9E
c0111a70 t _ZN5satan4arch3x8610interrupts8int_0xe917h56b68d08783cb0a6E
c0111ac0 t _ZN5satan4arch3x8610interrupts8int_0xea17h6a7a54ad2e0fc28aE
c0111b10 t _ZN5satan4arch3x8610interrupts8int_0xeb17hc3adfbbdf7b7334fE
c0111b60 t _ZN5satan4arch3x8610interrupts8int_0xec17hfb09a4ffbbb11aa7E
c0111bb0 t _ZN5satan4arch3x8610interrupts8int_0xed17h25d5ff82d487be3bE
c0111c00 t _ZN5satan4arch3x8610interrupts8int_0xee17h6a56ae4a38efa7bbE
c0111c50 t _ZN5satan4arch3x8610interrupts8int_0xef17hd17e72eac3486b94E
c0111ca0 t _ZN5satan4arch3x8610interrupts8int_0xf017h52073a47ee7c2ca6E
c0111cf0 t _ZN5satan4arch3x8610interrupts8int_0xf117hd7f7cb23d3a00247E
c0111d40 t _ZN5satan4arch3x8610interrupts8int_0xf217h08bbc6debc3d1c5eE
c0111d90 t _ZN5satan4arch3x8610interrupts8int_0xf317h4e0f63721e0235caE
c0111de0 t _ZN5satan4arch3x8610interrupts8int_0xf417hd7c4e95b93184179E
c0111e30 t _ZN5satan4arch3x8610interrupts8int_0xf517h059ee27af1d07676E
c0111e80 t _ZN5satan4arch3x8610interrupts8int_0xf617h8a03981e71a8d9cdE
c0111ed0 t _ZN5satan4arch3x8610interrupts8int_0xf717hb803c99d56d3c8afE
c0111f20 t _ZN5satan4arch3x8610interrupts8int_0xf817h6bea1a0cb4b39212E
c0111f70 t _ZN5satan4arch3x8610interrupts8int_0xf917ha0c7f7608adb0bb6E
c0111fc0 t _ZN5satan4arch3x8610interrupts8int_0xfa17h73ac3c5774122d9fE
c0112010 t _ZN5satan4arch3x8610interrupts8int_0xfb17h037966df531d734dE
c0112060 t _ZN5satan4arch3x8610interrupts8int_0xfc17h5e1bf675df4d0bb0E
c01120b0 t _ZN5satan4arch3x8610interrupts8int_0xfd17hc0f5a83e1af4970aE
c0112100 t _ZN5satan4arch3x8610interrupts8int_0xfe17h8e795f1e2635daf1E
c0112150 t _ZN5satan4arch3x8610interrupts8int_0xff17h89edd1ecc8bcca14E
c01121a0 T _ZN81_$LT$core..str..iter..Chars$u20$as$u20$core..iter..traits..iterator..Iterator$GT$4next17h3e0b6a2648c20d24E
c01121e0 T _ZN4core3cmp3Ord3max17h55eb87f4967a3f4eE
c0112250 T _ZN4core3cmp3Ord3min17hc96869d0a7384139E
c01122c0 T _RNvCsW2kLHQHBa7_7___rustc17rust_begin_unwind
c0112340 t _ZN4talc4talc13Talc$LT$O$GT$12clear_avails17h0ec175683f9e73a4E
c0112530 T _ZN4talc4talc13Talc$LT$O$GT$13grow_in_place17hb945c4896da96505E
c0112ab0 t _ZN4talc4talc13Talc$LT$O$GT$14deregister_gap17hb5796e265b2ccbd3E
c0112b90 t _ZN4talc4talc13Talc$LT$O$GT$19required_chunk_size17h4bba7ed749c420afE
c0112c20 t _ZN4talc4talc13Talc$LT$O$GT$20get_sufficient_chunk17hb9481da42dafe48eE
c0113bb0 T _ZN4talc4talc13Talc$LT$O$GT$4free17h23db091e1928ec16E
c0113ed0 T _ZN4talc4talc13Talc$LT$O$GT$6malloc17h4d1a525bc7bac0d2E
c01143c0 T _ZN4talc4talc13Talc$LT$O$GT$6shrink17h232c2682e0c9bf5cE
c0114890 t _ZN4core3fmt5Write10write_char17h225fbf40d3784993E
c0114900 T _ZN4core3fmt5Write9write_fmt17h10b7eb95d6b050f3E
c0114960 t _ZN75_$LT$$RF$mut$u20$W$u20$as$u20$core..fmt..Write..write_fmt..SpecWriteFmt$GT$14spec_write_fmt17hdb55fd4f7617047aE
c0114a50 T _ZN4core3fmt2rt8Argument10new_binary17heed1e544b5e261b3E
c0114ad0 T _ZN4core3fmt2rt8Argument11new_display17h3438828ee2318a75E
c0114b50 T _ZN4core3fmt2rt8Argument11new_display17h3ba7db1d5f96f384E
c0114bd0 T _ZN4core3fmt2rt8Argument13new_lower_hex17h7dbb6024c46e5abcE
c0114c50 T _ZN4core3ptr24slice_from_raw_parts_mut17h0944507020f7eb5eE
c0114c80 T _ZN4core3ptr24slice_from_raw_parts_mut17ha0ce7229938ab1d8E
c0114cb0 T _ZN4core3ptr4read17h663404adb8aa7deeE
c0114d10 T _ZN4core3ptr5write17h4b4d806a4e056c58E
c0114d70 T _ZN4core3ptr5write17h6ef7d6296c7af244E
c0114de0 T _ZN153_$LT$core..result..Result$LT$T$C$F$GT$$u20$as$u20$core..ops..try_trait..FromResidual$LT$core..result..Result$LT$core..convert..Infallible$C$E$GT$$GT$$GT$13from_residual17h36cef65f75961228E
c0114e00 T _ZN153_$LT$core..result..Result$LT$T$C$F$GT$$u20$as$u20$core..ops..try_trait..FromResidual$LT$core..result..Result$LT$core..convert..Infallible$C$E$GT$$GT$$GT$13from_residual17hc30acd70245f6f4eE
c0114e10 T _ZN4core6result19Result$LT$T$C$E$GT$2ok17h09e611ba4addd33fE
c0114eb0 T _ZN4core6result19Result$LT$T$C$E$GT$2ok17he5b0ad499513c64dE
c0114f50 t _ZN4core6result19Result$LT$T$C$E$GT$5is_ok17h572c5b9752d02781E
c0114f70 T _ZN4core6result19Result$LT$T$C$E$GT$5is_ok17h754a30b253037434E
c0114f80 t _ZN4core6result19Result$LT$T$C$E$GT$5is_ok17hf2030188666c5e1bE
c0114fa0 T _ZN4core6result19Result$LT$T$C$E$GT$6is_err17h5ba594b890110128E
c0114fd0 T _ZN4core6result19Result$LT$T$C$E$GT$6is_err17hc51e7976847bf5b3E
c0115000 T _ZN4core6result19Result$LT$T$C$E$GT$6map_or17h39fb46701dbeaf53E
c01150e0 T _ZN79_$LT$core..result..Result$LT$T$C$E$GT$$u20$as$u20$core..ops..try_trait..Try$GT$6branch17h1cdfecfe081ee870E
c0115120 T _ZN79_$LT$core..result..Result$LT$T$C$E$GT$$u20$as$u20$core..ops..try_trait..Try$GT$6branch17h71af7a1a89eeb9b6E
c0115160 T _ZN79_$LT$core..result..Result$LT$T$C$E$GT$$u20$as$u20$core..ops..try_trait..Try$GT$6branch17h8f17d9ce0db48665E
c01151f0 t _ZN8lock_api6rwlock19RwLock$LT$R$C$T$GT$26make_write_guard_unchecked17hb4883bdbcd2a8095E
c0115200 T _ZN8lock_api6rwlock19RwLock$LT$R$C$T$GT$5write17ha154a86c782b26b7E
c0115260 T _ZN94_$LT$lock_api..rwlock..RwLockWriteGuard$LT$R$C$T$GT$$u20$as$u20$core..ops..deref..DerefMut$GT$9deref_mut17hb795b1abb5998c80E
c0115270 T _ZN4core3str8converts23from_utf8_unchecked_mut17ha16cdb5864b2b46cE
c0115290 t _ZN4core3ptr100drop_in_place$LT$spin..mutex..spin..SpinMutexGuard$LT$satan..arch..x86..early_logger..Writer$GT$$GT$17h89412155084746caE
c01152b0 T _ZN4core3ptr146drop_in_place$LT$lock_api..mutex..MutexGuard$LT$spin..mutex..Mutex$LT$$LP$$RP$$GT$$C$talc..talc..Talc$LT$talc..oom_handler..ClaimOnOom$GT$$GT$$GT$17h611289200d72bd02E
c01152d0 T _ZN4core3ptr191drop_in_place$LT$lock_api..rwlock..RwLockWriteGuard$LT$spin..rwlock..RwLock$LT$$LP$$RP$$GT$$C$alloc..vec..Vec$LT$satan..memory..page_allocator..zoned_buddy..Zone$LT$4096_usize$GT$$GT$$GT$$GT$17h0a0b4bc82eaff348E
c01152f0 T _ZN4core3ptr67drop_in_place$LT$spin..rwlock..RwLockWriteGuard$LT$$LP$$RP$$GT$$GT$17h425d86776935000aE
c0115310 T _ZN4core3ptr90drop_in_place$LT$spin..mutex..MutexGuard$LT$satan..arch..x86..early_logger..Writer$GT$$GT$17h04213889b6e2da14E
c0115330 t _ZN82_$LT$lock_api..mutex..MutexGuard$LT$R$C$T$GT$$u20$as$u20$core..ops..drop..Drop$GT$4drop17ha4e7e1c26ed87e85E
c0115360 t _ZN84_$LT$spin..mutex..spin..SpinMutexGuard$LT$T$GT$$u20$as$u20$core..ops..drop..Drop$GT$4drop17h7631be5359c9fc75E
c01153a0 t _ZN85_$LT$spin..rwlock..RwLockWriteGuard$LT$T$C$R$GT$$u20$as$u20$core..ops..drop..Drop$GT$4drop17h7c3eb6a53aa2fbdfE
c0115470 t _ZN89_$LT$lock_api..rwlock..RwLockWriteGuard$LT$R$C$T$GT$$u20$as$u20$core..ops..drop..Drop$GT$4drop17h94c4f86b267c4354E
c01154a0 T _ZN4core3cmp5impls69_$LT$impl$u20$core..cmp..PartialEq$LT$$RF$B$GT$$u20$for$u20$$RF$A$GT$2eq17h063d8756a8bd20edE
c01154d0 T _ZN4core9core_arch3x864sse29_mm_pause17h14cd3d5a699baa92E
c01154e0 T _ZN4core3ptr4read18precondition_check17he01cfc62f4a1e80bE
c0115550 T _ZN4core3ptr5write18precondition_check17hcf21414537862a42E
c01155c0 T _ZN4core3cmp5impls50_$LT$impl$u20$core..cmp..Ord$u20$for$u20$usize$GT$3cmp17h9b93f1ef04275edcE
c01155e0 T _ZN4core3cmp5impls54_$LT$impl$u20$core..cmp..PartialEq$u20$for$u20$u32$GT$2eq17h96e4b805df1fee6bE
c0115600 T _ZN4core3cmp5impls57_$LT$impl$u20$core..cmp..PartialOrd$u20$for$u20$usize$GT$11partial_cmp17haaaf3c55ca112de0E
c0115620 t _ZN4core3num7nonzero20NonZero$LT$usize$GT$13leading_zeros17hfd8434f99438dd48E
c0115660 T _ZN4core3num7nonzero20NonZero$LT$usize$GT$5ilog217h388e5fabe53db6cfE
c01156c0 T _ZN4core5slice3raw18from_raw_parts_mut18precondition_check17h21d57e7b3e54fa40E
c0115750 T _ZN11memory_addr4addr8PhysAddr10from_usize17h10abf840c804b3acE
c0115760 T _ZN11memory_addr4addr8PhysAddr8as_usize17h162456e2e1271439E
c0115770 T _ZN11memory_addr4addr8VirtAddr10from_usize17h2739350b98cdeb2bE
c0115780 T _ZN11memory_addr4addr8VirtAddr8as_usize17h3d1a6bfda63b8706E
c0115790 T _ZN11memory_addr4addr90_$LT$impl$u20$core..convert..From$LT$memory_addr..addr..PhysAddr$GT$$u20$for$u20$usize$GT$4from17h1bba89033068c7d9E
c01157a0 T _ZN69_$LT$memory_addr..addr..PhysAddr$u20$as$u20$core..cmp..PartialOrd$GT$11partial_cmp17hba4d4b509387242fE
c01157d0 T _ZN69_$LT$memory_addr..addr..PhysAddr$u20$as$u20$core..ops..arith..Sub$GT$3sub17h740b6f7f16e278a8E
c0115820 T _ZN80_$LT$memory_addr..addr..PhysAddr$u20$as$u20$core..convert..From$LT$usize$GT$$GT$4from17h840786cebb09e499E
c0115830 T _ZN4core3ptr8non_null16NonNull$LT$T$GT$4cast17h3b85d1ac9397678cE
c0115840 T _ZN4core3ptr8non_null16NonNull$LT$T$GT$4cast17h5ca6c29842d6c793E
c0115850 T _ZN4core3ptr8non_null16NonNull$LT$T$GT$4cast17h9615566c387f8b24E
c0115860 T _ZN4core3ptr8non_null16NonNull$LT$T$GT$4cast17hc707d8b3d2cb3b79E
c0115870 T _ZN4core3ptr8non_null16NonNull$LT$T$GT$8from_ref17h2157ef24b78c9d41E
c0115880 T _ZN4core3ptr8non_null16NonNull$LT$T$GT$8from_ref17hd69c812dd8d9c252E
c0115890 T _ZN4core3ptr8non_null16NonNull$LT$T$GT$8from_ref17he16ac0f59153d4bbE
c01158a0 T _ZN11memory_addr4addr10MemoryAddr11align_up_4k17h6fc928a11a8cd2c5E
c0115900 T _ZN4core3cmp10PartialOrd2le17h7089e4c5d6da2a9bE
c0115940 t _ZN4core3cmp10PartialOrd2lt17h7d94d7de5785f233E
c0115980 T _ZN4core3cmp3Ord3max17h750f0307bd94c7c3E
c0115a00 t _ZN50_$LT$T$u20$as$u20$core..convert..Into$LT$U$GT$$GT$4into17hf502eb43634c1d4eE
c0115a20 T _ZN5satan6memory14page_allocator11zoned_buddy19ZonedBuddy$LT$_$GT$8add_zone17h1d018917a0cb6b56E
c0115f50 T _ZN79_$LT$multiboot2..memory_map..MemoryAreaType$u20$as$u20$core..cmp..PartialEq$GT$2eq17hdc03a0ad3e9eaa48E
c0116000 T _ZN4core5slice4iter87_$LT$impl$u20$core..iter..traits..collect..IntoIterator$u20$for$u20$$RF$$u5b$T$u5d$$GT$9into_iter17h1719db18910c5a1aE
c0116040 T _ZN4core3ptr7mut_ptr31_$LT$impl$u20$$BP$mut$u20$T$GT$3add18precondition_check17h5f434d5c88d775b6E
c01160a0 t _ZN4core3ptr7mut_ptr31_$LT$impl$u20$$BP$mut$u20$T$GT$3add18runtime_add_nowrap17h94aef641af364b8cE
c01160f0 t _ZN4core3ptr7mut_ptr31_$LT$impl$u20$$BP$mut$u20$T$GT$3add18runtime_add_nowrap7runtime17h3b85107b93606326E
c01161a0 T _ZN4core3ptr7mut_ptr31_$LT$impl$u20$$BP$mut$u20$T$GT$3sub18precondition_check17h6a93268af66f1823E
c0116200 t _ZN4core3ptr7mut_ptr31_$LT$impl$u20$$BP$mut$u20$T$GT$3sub18runtime_sub_nowrap17ha097e5e0663f2cb7E
c0116250 t _ZN4core3ptr7mut_ptr31_$LT$impl$u20$$BP$mut$u20$T$GT$3sub18runtime_sub_nowrap7runtime17ha2f79afb1d0affdeE
c01162e0 T _ZN4core3ptr7mut_ptr31_$LT$impl$u20$$BP$mut$u20$T$GT$6offset18precondition_check17hc54dc30f4e7e923cE
c0116340 t _ZN4core3ptr7mut_ptr31_$LT$impl$u20$$BP$mut$u20$T$GT$6offset21runtime_offset_nowrap17h6993811d66f081f3E
c0116390 t _ZN4core3ptr7mut_ptr31_$LT$impl$u20$$BP$mut$u20$T$GT$6offset21runtime_offset_nowrap7runtime17he6fe79681ca2013fE
c0116420 t _ZN4core3num21_$LT$impl$u20$i32$GT$3abs17h1b74ca1d66be39cdE
c0116490 T _ZN4core3num23_$LT$impl$u20$isize$GT$11checked_mul17heef53a16760f9710E
c0116510 T _ZN4core3num23_$LT$impl$u20$usize$GT$11checked_mul17h0763c6f6659a8181E
c0116590 t _ZN4core3num23_$LT$impl$u20$usize$GT$13checked_ilog217hc74d3a5dcd188ad6E
c0116620 T _ZN4core3num23_$LT$impl$u20$usize$GT$17next_power_of_two17h0b84c8d127660a2aE
c0116670 T _ZN4core3num23_$LT$impl$u20$usize$GT$22overflowing_add_signed17hc1fcc676cea97d1cE
c01166b0 t _ZN4core3num23_$LT$impl$u20$usize$GT$31one_less_than_next_power_of_two17h384e8a207209c093E
c0116760 T _ZN4core3num23_$LT$impl$u20$usize$GT$5ilog217hd036ff0ec3c188eaE
c01167c0 T _ZN4core3num23_$LT$impl$u20$usize$GT$8abs_diff17h43a85f0f12c9d8faE
c0116890 T _ZN4core3mem4drop17ha186ec548f928146E
c01168d0 T _ZN4core3mem4drop17hc3aea0fa37e9ce1cE
c0116900 T _ZN4core3mem6forget17ha70e35cf2a69b37cE
c0116920 T _ZN4core3mem6forget17hf48a53a6187a046eE
c0116940 T _ZN5alloc3vec16Vec$LT$T$C$A$GT$10as_mut_ptr17hf7cbaa99261f9e68E
c0116960 T _ZN5alloc3vec16Vec$LT$T$C$A$GT$4push17h43ad563d33f68951E
c0116a80 T _ZN25lock_free_buddy_allocator11buddy_alloc27BuddyAlloc$LT$_$C$C$C$A$GT$3new17heb7e8c60141f81e2E
c0116c60 T _RNvCsW2kLHQHBa7_7___rustc12___rust_alloc
c0116cb0 T _RNvCsW2kLHQHBa7_7___rustc14___rust_dealloc
c0116d20 T _RNvCsW2kLHQHBa7_7___rustc14___rust_realloc
c0116d90 T _RNvCsW2kLHQHBa7_7___rustc19___rust_alloc_zeroed
c0116de0 T _ZN4core10intrinsics11write_bytes18precondition_check17h4a32d15ff231cc57E
c0116e50 T _ZN4core10intrinsics19copy_nonoverlapping18precondition_check17h941bd6077b103382E
c0116f60 T _ZN4core3ptr9const_ptr33_$LT$impl$u20$$BP$const$u20$T$GT$7is_null7runtime17he6a4b559f85ccd22E
c0116f80 T _ZN4core3str21_$LT$impl$u20$str$GT$5chars17h64b91223d5b6afa1E
c0116fc0 T _ZN4core3fmt9Arguments16new_v1_formatted17h55f079b6ce48a123E
c0117030 T _ZN4core3fmt9Arguments23as_statically_known_str17h22eeb47af90e6233E
c01170a0 t _ZN4core3fmt9Arguments6as_str17hab8f2260387388e0E
c0117120 T _ZN53_$LT$core..fmt..Error$u20$as$u20$core..fmt..Debug$GT$3fmt17hff1a27c1d514328aE
c0117160 T _ZN4core4hint21unreachable_unchecked17h75cb306e7406e8d9E
c0117190 t _ZN4core4hint21unreachable_unchecked18precondition_check17h7e749424f308a7c8E
c01171c0 t _ZN25lock_free_buddy_allocator4tree17Tree$LT$_$C$A$GT$14allocate_space17hcc8c08c77e7e2d74E
c0117720 T _ZN25lock_free_buddy_allocator4tree17Tree$LT$_$C$A$GT$3new17hd3703eb31f075bc0E
c01179f0 t _ZN25lock_free_buddy_allocator4tree17Tree$LT$_$C$A$GT$9init_tree17h2b036b033691d064E
c0118b00 t _ZN4core3ptr7mut_ptr31_$LT$impl$u20$$BP$mut$u20$T$GT$6as_mut17hba3c7f8ea8136cedE
c0118b40 t _ZN4core3ptr7mut_ptr31_$LT$impl$u20$$BP$mut$u20$T$GT$6as_mut17hcff25fc5d7127b91E
c0118b80 t _ZN4core3ptr7mut_ptr31_$LT$impl$u20$$BP$mut$u20$T$GT$6as_ref17h0ef844ad0bd54306E
c0118bc0 t _ZN4core3ptr7mut_ptr31_$LT$impl$u20$$BP$mut$u20$T$GT$6as_ref17h2c6e5e39d00e9715E
c0118c00 t _ZN4core3ptr7mut_ptr31_$LT$impl$u20$$BP$mut$u20$T$GT$7is_null17h3eb8a1a44eb2bc1cE
c0118c30 t _ZN4core3ptr7mut_ptr31_$LT$impl$u20$$BP$mut$u20$T$GT$7is_null17h58bf46d6cc223132E
c0118c60 t _ZN4core3ptr9const_ptr33_$LT$impl$u20$$BP$const$u20$T$GT$7is_null17hd7667dc462c9dd69E
c0118c90 t _ZN4core3ptr9const_ptr33_$LT$impl$u20$$BP$const$u20$T$GT$7is_null17hfbdeb177f62b9c5aE
c0118cc0 T _ZN4core5alloc6global11GlobalAlloc12alloc_zeroed17he95000ef098b23b2E
c0118dc0 t _ZN4talc5talck18Talck$LT$R$C$O$GT$4lock17h43b4cb230479879aE
c0118de0 T _ZN84_$LT$talc..talck..Talck$LT$R$C$O$GT$$u20$as$u20$core..alloc..global..GlobalAlloc$GT$5alloc17h81ac34f3297d434aE
c0118ea0 T _ZN84_$LT$talc..talck..Talck$LT$R$C$O$GT$$u20$as$u20$core..alloc..global..GlobalAlloc$GT$5alloc28_$u7b$$u7b$closure$u7d$$u7d$17h6a6859f861ddc326E
c0118eb0 T _ZN84_$LT$talc..talck..Talck$LT$R$C$O$GT$$u20$as$u20$core..alloc..global..GlobalAlloc$GT$7dealloc17h2c8e3af1b7283748E
c0118f50 T _ZN84_$LT$talc..talck..Talck$LT$R$C$O$GT$$u20$as$u20$core..alloc..global..GlobalAlloc$GT$7realloc17hd1741db63f4ca2a2E
c0119450 T _ZN87_$LT$lock_api..mutex..MutexGuard$LT$R$C$T$GT$$u20$as$u20$core..ops..deref..DerefMut$GT$9deref_mut17hdd986d380217a08eE
c0119460 t _ZN8lock_api5mutex18Mutex$LT$R$C$T$GT$20make_guard_unchecked17h7e3bf54440e2781bE
c0119470 T _ZN8lock_api5mutex18Mutex$LT$R$C$T$GT$4lock17h6adb2aace62d600bE
c01194b0 t _ZN5alloc5alloc12alloc_zeroed17haed2869d42766985E
c0119530 t _ZN5alloc5alloc5alloc17h74866c42a1c52c92E
c01195b0 t _ZN5alloc5alloc6Global10alloc_impl17hf0f42318eba3d236E
c0119730 T _ZN63_$LT$alloc..alloc..Global$u20$as$u20$core..alloc..Allocator$GT$15allocate_zeroed17hca39f9e19a66a270E
c0119780 T _ZN44_$LT$$RF$T$u20$as$u20$core..fmt..Display$GT$3fmt17h0d478fc689ff7263E
c01197b0 T _RNvCsW2kLHQHBa7_7___rustc26___rust_alloc_error_handler
c01197c0 T _ZN145_$LT$core..option..Option$LT$T$GT$$u20$as$u20$core..ops..try_trait..FromResidual$LT$core..option..Option$LT$core..convert..Infallible$GT$$GT$$GT$13from_residual17h8fbdbe9cbf07f662E
c01197e0 T _ZN153_$LT$core..result..Result$LT$T$C$F$GT$$u20$as$u20$core..ops..try_trait..FromResidual$LT$core..result..Result$LT$core..convert..Infallible$C$E$GT$$GT$$GT$13from_residual17h9fe4ce69f831e5b2E
c01197f0 t _ZN45_$LT$$LP$$RP$$u20$as$u20$core..fmt..Debug$GT$3fmt17hf7d974ad1caec4fcE
c0119830 T _ZN4core3fmt2rt8Argument11new_pointer17h6c966336dba95864E
c01198b0 T _ZN4core3fmt8builders11DebugStruct10field_with17hc7f3d3e9f3cf979fE
c0119920 T _ZN4core3fmt8builders11DebugStruct10field_with28_$u7b$$u7b$closure$u7d$$u7d$17h6ddd60872c0d2eafE
c0119d00 t _ZN4core3num23_$LT$impl$u20$usize$GT$11checked_mul17h003f6086be8b0317E
c0119d80 t _ZN4core3num23_$LT$impl$u20$usize$GT$13checked_ilog217h5425f8fa58d9529cE
c0119e10 t _ZN4core3num23_$LT$impl$u20$usize$GT$5ilog217h30bb5a9fbb506f42E
c0119e70 t _ZN4core3num7nonzero20NonZero$LT$usize$GT$13leading_zeros17hf294a9449369ff3bE
c0119eb0 t _ZN4core3num7nonzero20NonZero$LT$usize$GT$5ilog217h01eb67f1dd892a2fE
c0119f10 T _ZN4core3ptr4read17h585d5e2ee2d373bfE
c0119f70 T _ZN4core3ptr4read17h66c2bbdbc249a431E
c0119fd0 T _ZN4core3ptr4read17hc8aa9e40f5fcaea0E
c011a030 t _ZN4core3ptr4read18precondition_check17hb3b3b6a0fd92404aE
c011a0a0 T _ZN4core3ptr5write17h13e13a974521f015E
c011a100 T _ZN4core3ptr5write17h2a278889891bd06fE
c011a160 T _ZN4core3ptr5write17h37c3e325662f1d84E
c011a1e0 T _ZN4core3ptr5write17h918b3ee308892d59E
c011a240 T _ZN4core3ptr5write17hff403ebdcf858077E
c011a2a0 t _ZN4core3ptr5write18precondition_check17h6922a8b94502ffa8E
c011a310 t _ZN4core3ptr7mut_ptr31_$LT$impl$u20$$BP$mut$u20$T$GT$3add18precondition_check17h16ae80682de367f3E
c011a370 t _ZN4core3ptr7mut_ptr31_$LT$impl$u20$$BP$mut$u20$T$GT$3add18runtime_add_nowrap17h4aacaf04e1168874E
c011a3c0 t _ZN4core3ptr7mut_ptr31_$LT$impl$u20$$BP$mut$u20$T$GT$3add18runtime_add_nowrap7runtime17h6f868d5923f71288E
c011a470 t _ZN4core3ptr7mut_ptr31_$LT$impl$u20$$BP$mut$u20$T$GT$3sub18precondition_check17h4851b3ecc68a36caE
c011a4d0 t _ZN4core3ptr7mut_ptr31_$LT$impl$u20$$BP$mut$u20$T$GT$3sub18runtime_sub_nowrap17hc7bb02f87a3046b2E
c011a520 t _ZN4core3ptr7mut_ptr31_$LT$impl$u20$$BP$mut$u20$T$GT$3sub18runtime_sub_nowrap7runtime17h41246b7ada565703E
c011a5b0 T _ZN4core3ptr7mut_ptr31_$LT$impl$u20$$BP$mut$u20$T$GT$7is_null17h066867a660d9eb91E
c011a5e0 T _ZN4core3ptr7mut_ptr31_$LT$impl$u20$$BP$mut$u20$T$GT$7is_null17h3ffaf9707bd9ca08E
c011a610 T _ZN4core3ptr7mut_ptr31_$LT$impl$u20$$BP$mut$u20$T$GT$7is_null17hcdcf55ef54d01a38E
c011a640 T _ZN4core3ptr8metadata18from_raw_parts_mut17h5e6c882a7813e17bE
c011a650 T _ZN4core3ptr8metadata8metadata17he8a439746a920bffE
c011a660 T _ZN4core3ptr8non_null16NonNull$LT$T$GT$13new_unchecked17h1de50ebfb60b4497E
c011a6b0 t _ZN4core3ptr8non_null16NonNull$LT$T$GT$13new_unchecked18precondition_check17h3658f90de4adc39eE
c011a700 T _ZN4core3ptr8non_null16NonNull$LT$T$GT$4cast17hb0b71a05dd5a67cfE
c011a710 T _ZN4core3ptr8non_null16NonNull$LT$T$GT$8from_ref17hd8bffe8744c78477E
c011a720 T _ZN4core3ptr9const_ptr33_$LT$impl$u20$$BP$const$u20$T$GT$7is_null17h27e64a0d072b141bE
c011a750 T _ZN4core3ptr9const_ptr33_$LT$impl$u20$$BP$const$u20$T$GT$7is_null17hb377884a76f9fc7dE
c011a780 t _ZN4core3ptr9const_ptr33_$LT$impl$u20$$BP$const$u20$T$GT$7is_null7runtime17h8b7aa93d458b9350E
c011a7a0 T _ZN4core6option15Option$LT$T$GT$7is_none17hb3289a662634b1a2E
c011a7d0 T _ZN4core6option15Option$LT$T$GT$7is_some17h5a7de843f4a10e21E
c011a810 T _ZN4core6result19Result$LT$T$C$E$GT$8and_then17hf89752f4e5995214E
c011a8b0 t _ZN4core9ub_checks17check_language_ub17hb6a261b23de7a931E
c011a8e0 t _ZN4core9ub_checks17check_language_ub7runtime17h21d9f530bbd10b42E
c011a8f0 t _ZN4core9ub_checks29maybe_is_aligned_and_not_null17h30ff6e84d1875f92E
c011a950 t _ZN4core9ub_checks29maybe_is_aligned_and_not_null7runtime17h4dab498e002c5a7fE
c011a9d0 T _ZN52_$LT$$BP$mut$u20$T$u20$as$u20$core..fmt..Pointer$GT$3fmt17hdc4394d045d01973E
c011aa10 T _ZN54_$LT$$BP$const$u20$T$u20$as$u20$core..fmt..Pointer$GT$3fmt17hb6a3b685a9ece8bfE
c011ab30 T _ZN54_$LT$$BP$const$u20$T$u20$as$u20$core..fmt..Pointer$GT$3fmt28_$u7b$$u7b$closure$u7d$$u7d$17h1562ca3413580d0bE
c011ab70 T _ZN63_$LT$I$u20$as$u20$core..iter..traits..collect..IntoIterator$GT$9into_iter17hbbe70e12291e3d6fE
c011ab80 T _ZN75_$LT$core..option..Option$LT$T$GT$$u20$as$u20$core..ops..try_trait..Try$GT$6branch17hdb631cc8b1c64b73E
c011abd0 T _ZN79_$LT$core..result..Result$LT$T$C$E$GT$$u20$as$u20$core..ops..try_trait..Try$GT$6branch17haf49d0a0a166393cE
c011ac30 T _ZN79_$LT$talc..oom_handler..ClaimOnOom$u20$as$u20$talc..oom_handler..OomHandler$GT$10handle_oom17h72b08522e720e2f3E
c011ad20 T _ZN4talc9ptr_utils10align_down17had288d4e67daa91fE
c011ad60 t _ZN4talc9ptr_utils18align_up_overflows17h2b1a098984236f45E
c011adc0 T _ZN4talc9ptr_utils8align_up17h27dc62f2c7341996E
c011ae70 t _ZN4talc4span4Span8is_empty17h367f412635324e04E
c011ae90 t _ZN4talc4span4Span13get_base_acme17h8a94c543bee3779eE
c011af10 t _ZN4talc4span4Span5empty17h42f4f063fd362765E
c011af70 t _ZN4talc4span4Span8contains17hecc39ac76f595d27E
c011afc0 t _ZN4talc4span4Span17word_align_inward17hc30380db8bc52057E
c011b080 t _ZN4talc4talc5llist9LlistNode8next_ptr17hf3e085533fc81374E
c011b090 T _ZN4talc4talc5llist9LlistNode6insert17h134cfe992a1c3f00E
c011b1d0 T _ZN4talc4talc5llist9LlistNode6remove17h9de9b64a9c1e9aa0E
c011b2d0 T _ZN4talc4talc5llist9LlistNode8iter_mut17h1e48632f9fd78b87E
c011b2f0 t _ZN4talc4talc5llist7IterMut3new17hcc9caa5bdd248d60E
c011b300 T _ZN85_$LT$talc..talc..llist..IterMut$u20$as$u20$core..iter..traits..iterator..Iterator$GT$4next17h53601965beb5a5beE
c011b390 T _ZN4talc4talc3tag3Tag5write17h45390af2b228cbb4E
c011b480 T _ZN4talc4talc3tag3Tag10chunk_base17hca148e4845d12cb9E
c011b4c0 T _ZN4talc4talc3tag3Tag13is_above_free17hd00b1a7f844460e8E
c011b4d0 T _ZN4talc4talc3tag3Tag12is_allocated17h965d8c2b08c0442bE
c011b4e0 T _ZN4talc4talc3tag3Tag14set_above_free17h336b59adcde00f75E
c011b5d0 T _ZN4talc4talc3tag3Tag16clear_above_free17hbee472949bcd0398E
c011b6e0 t _ZN4talc4talc16gap_base_to_node17he6955faa7cd2eca2E
c011b750 t _ZN4talc4talc16gap_base_to_size17h9ea2f860092df93eE
c011b7c0 t _ZN4talc4talc21gap_base_to_acme_size17hc6591560fa70abbaE
c011b850 t _ZN4talc4talc16gap_acme_to_size17ha45975a3aef96e3eE
c011b8c0 t _ZN4talc4talc16gap_node_to_base17h69b266db69c279dbE
c011b940 t _ZN4talc4talc13is_chunk_size17h6b48a4ab060acd5fE
c011ba40 t _ZN4talc4talc11bin_of_size17h4b670bbd784d7ac6E
c011bd50 T _ZN4talc4talc13Talc$LT$O$GT$11get_bin_ptr17h504c6e72bbe11152E
c011be00 T _ZN4talc4talc13Talc$LT$O$GT$10set_avails17h59b3f106c59d8e32E
c011c000 T _ZN4talc4talc13Talc$LT$O$GT$12register_gap17ha94f0d51745d826fE
c011c1c0 T _ZN4talc4talc13Talc$LT$O$GT$5claim17hbf5289bb05a7e916E
c011c880 T _ZN4talc4talc13Talc$LT$O$GT$15scan_for_errors17h6c7179af24dd9a52E
c011cdb0 T _ZN100_$LT$multiboot2_common..iter..TagIter$LT$H$GT$$u20$as$u20$core..iter..traits..iterator..Iterator$GT$4next17h4ff2c7382b3d08fbE
c011d170 T _ZN17multiboot2_common4iter16TagIter$LT$H$GT$3new17h3018063e51c0ce80E
c011d250 T _ZN185_$LT$core..ops..control_flow..ControlFlow$LT$B$C$C$GT$$u20$as$u20$core..ops..try_trait..FromResidual$LT$core..ops..control_flow..ControlFlow$LT$B$C$core..convert..Infallible$GT$$GT$$GT$13from_residual17h0d6d2a0430a620e2E
c011d290 T _ZN4core3num23_$LT$impl$u20$usize$GT$11checked_mul17hdc72fef22e553ba2E
c011d310 T _ZN4core3num23_$LT$impl$u20$usize$GT$11checked_sub17hb42957de1caca830E
c011d360 T _ZN4core3ops12control_flow24ControlFlow$LT$B$C$C$GT$11break_value17h15a65646586d1ddcE
c011d400 T _ZN4core4iter6traits8iterator8Iterator4find17h397c4e2f1f788324E
c011d450 T _ZN4core4iter6traits8iterator8Iterator8try_fold17ha48d6e524f055950E
c011d570 T _ZN4core5slice4iter13Iter$LT$T$GT$3new17h0d5c1748a397ea0bE
c011d620 T _ZN4core6option15Option$LT$T$GT$11is_some_and17h76a623262e49f8eeE
c011d6b0 T _ZN4core6option15Option$LT$T$GT$3map17hafebaeb4149c38d7E
c011d760 T _ZN4core6option15Option$LT$T$GT$5ok_or17hd968b4af86d4d818E
c011d7f0 T _ZN8ptr_meta14from_raw_parts17h35a710a338ed0e49E
c011d810 T _ZN8ptr_meta14from_raw_parts17h591453231b419322E
c011d830 T _ZN8ptr_meta14from_raw_parts17he18cacb3f391fce3E
c011d850 T _ZN91_$LT$core..slice..iter..Iter$LT$T$GT$$u20$as$u20$core..iter..traits..iterator..Iterator$GT$4next17h3f755d2a0fdd1ac9E
c011d900 T _ZN95_$LT$core..ops..control_flow..ControlFlow$LT$B$C$C$GT$$u20$as$u20$core..ops..try_trait..Try$GT$11from_output17ha7a8b68b9ca0c079E
c011d920 T _ZN95_$LT$core..ops..control_flow..ControlFlow$LT$B$C$C$GT$$u20$as$u20$core..ops..try_trait..Try$GT$6branch17h3b0dea658bcc4fbfE
c011d9a0 T _ZN153_$LT$core..result..Result$LT$T$C$F$GT$$u20$as$u20$core..ops..try_trait..FromResidual$LT$core..result..Result$LT$core..convert..Infallible$C$E$GT$$GT$$GT$13from_residual17h4e846de808536386E
c011d9d0 T _ZN153_$LT$core..result..Result$LT$T$C$F$GT$$u20$as$u20$core..ops..try_trait..FromResidual$LT$core..result..Result$LT$core..convert..Infallible$C$E$GT$$GT$$GT$13from_residual17h7b053a85c544c620E
c011da00 T _ZN153_$LT$core..result..Result$LT$T$C$F$GT$$u20$as$u20$core..ops..try_trait..FromResidual$LT$core..result..Result$LT$core..convert..Infallible$C$E$GT$$GT$$GT$13from_residual17hf618d1eeca4690e5E
c011da30 T _ZN17multiboot2_common26DynSizedStructure$LT$H$GT$12ref_from_ptr17h3b6df52930f77ca4E
c011dad0 T _ZN17multiboot2_common26DynSizedStructure$LT$H$GT$14ref_from_bytes17h0080ae41f18e4029E
c011dbd0 T _ZN17multiboot2_common26DynSizedStructure$LT$H$GT$14ref_from_bytes17he114e7d57de4a6e2E
c011dcd0 T _ZN17multiboot2_common26DynSizedStructure$LT$H$GT$14ref_from_slice17h4f9602f2aad35062E
c011ddc0 T _ZN17multiboot2_common26DynSizedStructure$LT$H$GT$14ref_from_slice17h7409e9d0cc245342E
c011deb0 T _ZN17multiboot2_common26DynSizedStructure$LT$H$GT$4cast17hc589f5d6707d9c04E
c011e030 T _ZN17multiboot2_common26DynSizedStructure$LT$H$GT$6header17h1dbd23988ad9236cE
c011e050 T _ZN17multiboot2_common26DynSizedStructure$LT$H$GT$6header17ha7aa8b22373507f6E
c011e070 T _ZN17multiboot2_common26DynSizedStructure$LT$H$GT$7payload17h454fe66211782bc5E
c011e090 T _ZN17multiboot2_common6Header10total_size17hab885aeecc463d98E
c011e0e0 T _ZN4core3ptr7mut_ptr31_$LT$impl$u20$$BP$mut$u20$T$GT$7is_null17h3e24f9625f89c116E
c011e110 T _ZN4core3ptr9const_ptr33_$LT$impl$u20$$BP$const$u20$T$GT$7is_null17h2d038ef9132f63a0E
c011e140 T _ZN4core6result19Result$LT$T$C$E$GT$7map_err17h58f0aa64f95c6923E
c011e200 T _ZN67_$LT$multiboot2_common..MemoryError$u20$as$u20$core..fmt..Debug$GT$3fmt17hd21dc5a50098fbb5E
c011e2e0 T _ZN79_$LT$core..result..Result$LT$T$C$E$GT$$u20$as$u20$core..ops..try_trait..Try$GT$6branch17h31941e0905b21e60E
c011e370 T _ZN79_$LT$core..result..Result$LT$T$C$E$GT$$u20$as$u20$core..ops..try_trait..Try$GT$6branch17h59d8265a8cd12c4eE
c011e400 T _ZN79_$LT$core..result..Result$LT$T$C$E$GT$$u20$as$u20$core..ops..try_trait..Try$GT$6branch17hac690760215bc38dE
c011e460 T _ZN79_$LT$core..result..Result$LT$T$C$E$GT$$u20$as$u20$core..ops..try_trait..Try$GT$6branch17hc8f15e49ea1eeed2E
c011e4f0 T _ZN97_$LT$multiboot2..boot_information..BootInformationHeader$u20$as$u20$multiboot2_common..Header$GT$11payload_len17h97a807e2ca595fc0E
c011e540 T _ZN10multiboot216boot_information15BootInformation4load17h8ee8405f4447609bE
c011e710 t _ZN10multiboot216boot_information15BootInformation17has_valid_end_tag17h32381352609c6964E
c011e860 T _ZN10multiboot216boot_information15BootInformation14memory_map_tag17h3831a58566f376bcE
c011e880 T _ZN10multiboot216boot_information15BootInformation7get_tag17h56d66583ab1fc17aE
c011e8e0 T _ZN10multiboot216boot_information15BootInformation7get_tag28_$u7b$$u7b$closure$u7d$$u7d$17h7e2a484ac00781ddE
c011e930 T _ZN10multiboot216boot_information15BootInformation7get_tag28_$u7b$$u7b$closure$u7d$$u7d$17h4a5f2cb053869fd2E
c011e970 T _ZN10multiboot216boot_information15BootInformation4tags17hfefe262cd19776f2E
c011e9e0 T _ZN10multiboot216boot_information9LoadError6Memory17h528955b88ea5cf68E
c011e9f0 T _ZN78_$LT$multiboot2..boot_information..LoadError$u20$as$u20$core..fmt..Display$GT$3fmt17h19c3fa745c7ef92aE
c011eaa0 T _ZN114_$LT$multiboot2_common..bytes_ref..BytesRef$LT$H$GT$$u20$as$u20$core..convert..TryFrom$LT$$RF$$u5b$u8$u5d$$GT$$GT$8try_from17h6ad4535cd57f117cE
c011eb80 T _ZN114_$LT$multiboot2_common..bytes_ref..BytesRef$LT$H$GT$$u20$as$u20$core..convert..TryFrom$LT$$RF$$u5b$u8$u5d$$GT$$GT$8try_from17he60f85978d41d4a3E
c011ec60 T _ZN4core3cmp8Ordering5is_le17hbbd33e0f82c15188E
c011ec90 t _ZN4core3cmp8Ordering6as_raw17h409e7c4454f4b58dE
c011eca0 T _ZN4core9ub_checks17check_language_ub17h95ac19e8cdc20805E
c011ecd0 t _ZN4core9ub_checks17check_language_ub7runtime17h3e2e1719a993b604E
c011ece0 T _ZN91_$LT$multiboot2_common..bytes_ref..BytesRef$LT$H$GT$$u20$as$u20$core..ops..deref..Deref$GT$5deref17hafeed83efa542851E
c011ecf0 T _ZN91_$LT$multiboot2_common..bytes_ref..BytesRef$LT$H$GT$$u20$as$u20$core..ops..deref..Deref$GT$5deref17hdef9a94fb00c1d15E
c011ed00 T _ZN72_$LT$multiboot2..tag..TagHeader$u20$as$u20$multiboot2_common..Header$GT$11payload_len17hbb0d8d906a9e7237E
c011ed80 T _ZN10multiboot28tag_type26primitive_conversion_impls92_$LT$impl$u20$core..convert..From$LT$multiboot2..tag_type..TagTypeId$GT$$u20$for$u20$u32$GT$4from17h71570ef1ef2a4cf7E
c011ed90 T _ZN10multiboot28tag_type26primitive_conversion_impls90_$LT$impl$u20$core..convert..From$LT$multiboot2..tag_type..TagType$GT$$u20$for$u20$u32$GT$4from17h2edd2c5dfc7cb302E
c011eee0 T _ZN4core3mem11size_of_val17h241ccbf155d98bb7E
c011ef10 T _ZN4core3mem11size_of_val17hbaf51e8ef70d50c0E
c011ef40 T _ZN4core3ops8function6FnOnce9call_once17h14ab754cfe7f6041E
c011ef70 T _ZN4core3ops8function6FnOnce9call_once17h1915d252e198b176E
c011efa0 T _ZN4core3ptr7mut_ptr31_$LT$impl$u20$$BP$mut$u20$T$GT$3add18precondition_check17h40ea2854685f77c6E
c011f000 t _ZN4core3ptr7mut_ptr31_$LT$impl$u20$$BP$mut$u20$T$GT$3add18runtime_add_nowrap17h3c186cebe1f74bb0E
c011f050 t _ZN4core3ptr7mut_ptr31_$LT$impl$u20$$BP$mut$u20$T$GT$3add18runtime_add_nowrap7runtime17h8a28e663dc36b6d6E
c011f100 T _ZN4core3ptr7mut_ptr31_$LT$impl$u20$$BP$mut$u20$T$GT$7is_null17hefe73a44e82338d1E
c011f130 T _ZN4core3ptr8non_null16NonNull$LT$T$GT$13new_unchecked17hd81e29d381b3e6f4E
c011f180 t _ZN4core3ptr8non_null16NonNull$LT$T$GT$13new_unchecked18precondition_check17hec67faaf59596a1cE
c011f1d0 T _ZN4core3ptr8non_null16NonNull$LT$T$GT$3new17h91e0a541ac75da5cE
c011f230 T _ZN4core3ptr8non_null16NonNull$LT$T$GT$4cast17h5317cfc4a14d4cc6E
c011f250 T _ZN4core3ptr8non_null16NonNull$LT$T$GT$8from_ref17haf44a76fcf2478dcE
c011f270 T _ZN4core3ptr9const_ptr33_$LT$impl$u20$$BP$const$u20$T$GT$3add18precondition_check17hdb8afd0712472a76E
c011f2d0 t _ZN4core3ptr9const_ptr33_$LT$impl$u20$$BP$const$u20$T$GT$3add18runtime_add_nowrap17h406a765555afeb52E
c011f320 t _ZN4core3ptr9const_ptr33_$LT$impl$u20$$BP$const$u20$T$GT$3add18runtime_add_nowrap7runtime17he46bea2cf409f7a8E
c011f3d0 T _ZN4core3ptr9const_ptr33_$LT$impl$u20$$BP$const$u20$T$GT$3sub18precondition_check17hfe4a7d6da9dc5dd2E
c011f430 t _ZN4core3ptr9const_ptr33_$LT$impl$u20$$BP$const$u20$T$GT$3sub18runtime_sub_nowrap17h449d99cf1a1c0575E
c011f480 t _ZN4core3ptr9const_ptr33_$LT$impl$u20$$BP$const$u20$T$GT$3sub18runtime_sub_nowrap7runtime17hd645f77443e89150E
c011f510 T _ZN4core3ptr9const_ptr33_$LT$impl$u20$$BP$const$u20$T$GT$7is_null7runtime17h04320e2714162896E
c011f530 T _ZN4core4iter6traits8iterator8Iterator4find5check17h57e182b0789de959E
c011f540 T _ZN4core4iter6traits8iterator8Iterator4find5check28_$u7b$$u7b$closure$u7d$$u7d$17h269d23513527d748E
c011f5c0 T _ZN4core5slice29_$LT$impl$u20$$u5b$T$u5d$$GT$4iter17haac22ca40b548e26E
c011f600 T _ZN78_$LT$core..ptr..non_null..NonNull$LT$T$GT$$u20$as$u20$core..cmp..PartialEq$GT$2eq17he457f241296a8149E
c011f630 T _ZN10multiboot210memory_map12MemoryMapTag12memory_areas17h0a41d4129608c5ddE
c011f6e0 T _ZN94_$LT$multiboot2..memory_map..MemoryMapTag$u20$as$u20$multiboot2_common..tag..MaybeDynSized$GT$7dst_len17h95858d2de1c611c3E
c011f830 T _ZN10multiboot210memory_map10MemoryArea13start_address17h17e36d57faaf5519E
c011f840 T _ZN10multiboot210memory_map10MemoryArea11end_address17h67bb0a4860cfcb51E
c011f8a0 T _ZN10multiboot210memory_map10MemoryArea3typ17h13448c1273de0f09E
c011f8b0 T _ZN126_$LT$multiboot2..memory_map..MemoryAreaType$u20$as$u20$core..convert..From$LT$multiboot2..memory_map..MemoryAreaTypeId$GT$$GT$4from17h60e54d32d86aa1fdE
c011f940 T _ZN10multiboot28tag_type16partial_eq_impls119_$LT$impl$u20$core..cmp..PartialEq$LT$multiboot2..tag_type..TagTypeId$GT$$u20$for$u20$multiboot2..tag_type..TagType$GT$2eq17hdab0d9d6620db07cE
c011f9b0 T _ZN10multiboot28tag_type16partial_eq_impls119_$LT$impl$u20$core..cmp..PartialEq$LT$multiboot2..tag_type..TagType$GT$$u20$for$u20$multiboot2..tag_type..TagTypeId$GT$2eq17h7bf905ede4acc5bcE
c011f9e0 T _ZN17multiboot2_common21increase_to_alignment17hef1bd1691b78e126E
c011fa30 T _ZN69_$LT$multiboot2_common..MemoryError$u20$as$u20$core..fmt..Display$GT$3fmt17hbc6656bede99528cE
c011fb50 t _ZN4core3fmt2rt9UnsafeArg3new17h6a8cf99c5dc6b8d4E
c011fb60 t _ZN4core3fmt9Arguments16new_v1_formatted17h7063b58c92101682E
c011fbd0 t _ZN4core3fmt9Arguments23as_statically_known_str17h54f9ecad1f43d11bE
c011fc40 t _ZN4core3fmt9Arguments6as_str17hb4db0f2519af567cE
c011fcc0 t _ZN4core3fmt9Formatter9write_fmt17h0fb96cfc6bcbf7ddE
c011fdc0 T _ZN67_$LT$memory_addr..addr..PhysAddr$u20$as$u20$core..fmt..LowerHex$GT$3fmt17hc9fe784176ce65f2E
c011fe70 T _ZN39_$LT$u8$u20$as$u20$portable..PortRw$GT$4read17ha6c1589225f7ba29E
c011fe90 T _ZN39_$LT$u8$u20$as$u20$portable..PortRw$GT$5write17h70ffd5a0c8c30862E
c011fea0 T _ZN4core4sync6atomic12atomic_store17h9c727ac0f20a0fd5E
c011ff80 T _ZN119_$LT$core..ptr..non_null..NonNull$LT$T$GT$$u20$as$u20$core..convert..From$LT$core..ptr..unique..Unique$LT$T$GT$$GT$$GT$4from17h3267b768b7cb7184E
c011ffa0 T _ZN119_$LT$core..ptr..unique..Unique$LT$T$GT$$u20$as$u20$core..convert..From$LT$core..ptr..non_null..NonNull$LT$T$GT$$GT$$GT$4from17hd454bfb2ecb101c5E
c011ffc0 t _ZN4core3num11niche_types14UsizeNoHighBit13new_unchecked17h4ac9be4b93e51d96E
c011ffd0 t _ZN4core3num11niche_types14UsizeNoHighBit8as_inner17hedf2e053c941858eE
c011ffe0 T _ZN4core3ptr6unique15Unique$LT$T$GT$13from_non_null17h97d44ccb972351efE
c011fff0 T _ZN4core3ptr6unique15Unique$LT$T$GT$15as_non_null_ptr17hb9754199a7dfd051E
c0120000 T _ZN4core3ptr8non_null16NonNull$LT$T$GT$13new_unchecked17h45ca0ff949109d04E
c0120060 T _ZN4core3ptr8non_null16NonNull$LT$T$GT$13new_unchecked17h547dadc38b02c281E
c01200b0 t _ZN4core3ptr8non_null16NonNull$LT$T$GT$13new_unchecked18precondition_check17h26dbe9d598112900E
c0120100 T _ZN4core3ptr8non_null16NonNull$LT$T$GT$18without_provenance17h4707904fe61a48b1E
c0120140 T _ZN4core3ptr8non_null16NonNull$LT$T$GT$3new17h6a9767d02042fc98E
c01201a0 T _ZN4core3ptr8non_null26NonNull$LT$$u5b$T$u5d$$GT$10as_mut_ptr17h4186723c955a513aE
c01201e0 T _ZN4core3ptr8non_null26NonNull$LT$$u5b$T$u5d$$GT$15as_non_null_ptr17h553e84c54d4d6b21E
c0120220 T _ZN4core3ptr8non_null26NonNull$LT$$u5b$T$u5d$$GT$20slice_from_raw_parts17h5f36831703818e7fE
c0120270 t _ZN4core3ptr9alignment9Alignment10as_nonzero17hea6cbea4bbd3ad5eE
c0120280 t _ZN4core3ptr9alignment9Alignment8as_usize17hfcf821e6d759db70E
c0120290 T _ZN4core5alloc6layout6Layout12pad_to_align17h655fdd1575dc44cbE
c01202f0 t _ZN4core5alloc6layout6Layout13repeat_packed17h8f12d40e2f75d85eE
c0120370 t _ZN4core5alloc6layout6Layout19from_size_alignment17hae9380f9643622c0E
c01203e0 T _ZN4core5alloc6layout6Layout25from_size_align_unchecked17h27a377cc2d9212bbE
c0120430 t _ZN4core5alloc6layout6Layout25from_size_align_unchecked18precondition_check17h381bb293a635e15dE
c0120480 t _ZN4core5alloc6layout6Layout31size_rounded_up_to_custom_align17h8b958e62cd0c6197E
c01204d0 T _ZN4core5alloc6layout6Layout4size17h1f5aa446c678d12fE
c01204e0 T _ZN4core5alloc6layout6Layout5align17h7a2b726d9ba27218E
c0120510 t _ZN4core5alloc6layout6Layout6repeat17hc9c365ec7c010ca6E
c0120600 T _ZN4core5alloc6layout6Layout8dangling17h3f03c160f08a2cdcE
c0120640 T _ZN4core6option15Option$LT$T$GT$5ok_or17h5319c693c36f9974E
c01206b0 T _ZN4core6option15Option$LT$T$GT$5ok_or17h7d2d818651d24b7fE
c0120740 T _ZN4core9ub_checks17check_language_ub17h5114b5e234940c6aE
c0120770 t _ZN4core9ub_checks17check_language_ub7runtime17h89bfd05ed2860314E
c0120780 T _ZN4core9ub_checks23maybe_is_nonoverlapping17hba18db8cf08a8103E
c01207e0 t _ZN4core9ub_checks23maybe_is_nonoverlapping7runtime17h5315a37858871709E
c01208a0 T _ZN4core9ub_checks29maybe_is_aligned_and_not_null17hef70a9dea392b21fE
c0120900 t _ZN4core9ub_checks29maybe_is_aligned_and_not_null7runtime17hcfb3c8efed4c1f53E
c0120980 T _ZN50_$LT$T$u20$as$u20$core..convert..Into$LT$U$GT$$GT$4into17h83c34aa7c16e3debE
c01209a0 T _ZN66_$LT$core..alloc..layout..Layout$u20$as$u20$core..clone..Clone$GT$5clone17h89e2ebdb2c04e335E
c01209b0 t _ZN5alloc7raw_vec17capacity_overflow17h1d542fc2921d9c38E
c0120a00 T _ZN5alloc7raw_vec16min_non_zero_cap17h3462b52ec5e862d8E
c0120a50 T _ZN5alloc7raw_vec20RawVecInner$LT$A$GT$8capacity17h3486ed4179b640e5E
c0120aa0 T _ZN5alloc7raw_vec20RawVecInner$LT$A$GT$14current_memory17h7b6d5171458731abE
c0120c20 T _ZN5alloc7raw_vec20RawVecInner$LT$A$GT$8grow_one17hc0df7f3dd80bab5aE
c0120cf0 T _ZN5alloc7raw_vec20RawVecInner$LT$A$GT$15set_ptr_and_cap17h9470ccb3139f5a67E
c0120d70 T _ZN5alloc7raw_vec20RawVecInner$LT$A$GT$14grow_amortized17hb7d17dcd6d9fee76E
c0121190 T _ZN5alloc7raw_vec11finish_grow17heed350d9841c1eb5E
c0121470 T _ZN5alloc7raw_vec11finish_grow28_$u7b$$u7b$closure$u7d$$u7d$17h1ec52595b562f5bbE
c01214b9 T _ZN5alloc7raw_vec12handle_error17h58947c78a36161eeE
c0121560 t _ZN5alloc7raw_vec11alloc_guard17h4cd1f36aab6872f2E
c01215e0 t _ZN5alloc7raw_vec12layout_array17h0a6442fc4eec667eE
c0121670 T _ZN5alloc7raw_vec12layout_array28_$u7b$$u7b$closure$u7d$$u7d$17hb85619c6aadfc4b6E
c0121690 T _ZN5alloc7raw_vec12layout_array28_$u7b$$u7b$closure$u7d$$u7d$17h21651a7da19c7fe8E
c01216d0 T _ZN153_$LT$core..result..Result$LT$T$C$F$GT$$u20$as$u20$core..ops..try_trait..FromResidual$LT$core..result..Result$LT$core..convert..Infallible$C$E$GT$$GT$$GT$13from_residual17h12a51d5bf4914bd3E
c0121710 T _ZN153_$LT$core..result..Result$LT$T$C$F$GT$$u20$as$u20$core..ops..try_trait..FromResidual$LT$core..result..Result$LT$core..convert..Infallible$C$E$GT$$GT$$GT$13from_residual17h26597e9ab558ad77E
c0121760 T _ZN153_$LT$core..result..Result$LT$T$C$F$GT$$u20$as$u20$core..ops..try_trait..FromResidual$LT$core..result..Result$LT$core..convert..Infallible$C$E$GT$$GT$$GT$13from_residual17h3722e49ebe6bdd9aE
c0121780 T _ZN153_$LT$core..result..Result$LT$T$C$F$GT$$u20$as$u20$core..ops..try_trait..FromResidual$LT$core..result..Result$LT$core..convert..Infallible$C$E$GT$$GT$$GT$13from_residual17h889fde2376d3ef7cE
c01217e0 t _ZN4core10intrinsics11write_bytes18precondition_check17h3bd042f73b531de1E
c0121850 T _ZN4core10intrinsics19copy_nonoverlapping18precondition_check17h011225a3ec389221E
c0121960 t _ZN4core3num21_$LT$impl$u20$i32$GT$3abs17h6bca81d0d869da2cE
c01219d0 T _ZN4core3num23_$LT$impl$u20$usize$GT$11checked_add17h12558f5c9e4e20aaE
c0121a40 T _ZN4core3num23_$LT$impl$u20$usize$GT$11checked_mul17hb979fe750e15e9b4E
c0121ac0 T _ZN4core3num23_$LT$impl$u20$usize$GT$13unchecked_mul18precondition_check17h5c9aa6460b5b70b9E
c0121b20 T _ZN4core3num23_$LT$impl$u20$usize$GT$8abs_diff17hedae0168d4d23f8cE
c0121bf0 T _ZN4core3ptr13read_volatile17h1b3f4318fcfc3ab9E
c0121c50 t _ZN4core3ptr13read_volatile18precondition_check17h0c2daff25dde5363E
c0121cc0 T _ZN4core3ptr7mut_ptr31_$LT$impl$u20$$BP$mut$u20$T$GT$3add18precondition_check17h075220b6a65dcad3E
c0121d20 t _ZN4core3ptr7mut_ptr31_$LT$impl$u20$$BP$mut$u20$T$GT$3add18runtime_add_nowrap17hf64f064c5dc3de06E
c0121d70 t _ZN4core3ptr7mut_ptr31_$LT$impl$u20$$BP$mut$u20$T$GT$3add18runtime_add_nowrap7runtime17h50353f86e7fc9866E
c0121e20 T _ZN4core3ptr7mut_ptr31_$LT$impl$u20$$BP$mut$u20$T$GT$7is_null17h133e09c5695c2d00E
c0121e50 T _ZN4core3ptr7mut_ptr31_$LT$impl$u20$$BP$mut$u20$T$GT$7is_null17h4a6de59fedf91158E
c0121e80 T _ZN4core3ptr9const_ptr33_$LT$impl$u20$$BP$const$u20$T$GT$7is_null17he467c08b5e603b29E
c0121eb0 t _ZN4core3ptr9const_ptr33_$LT$impl$u20$$BP$const$u20$T$GT$7is_null7runtime17h1965626b3977aa33E
c0121ed0 T _ZN4core4hint16assert_unchecked18precondition_check17hd52362f5d5b4fe68E
c0121f20 T _ZN4core6result19Result$LT$T$C$E$GT$3map17hceb8fd54fe77d7afE
c0121fe0 T _ZN4core6result19Result$LT$T$C$E$GT$7map_err17h4c8fac0916642c5fE
c01220a0 T _ZN4core6result19Result$LT$T$C$E$GT$7map_err17h720a01edcf3697acE
c0122170 T _ZN50_$LT$T$u20$as$u20$core..convert..Into$LT$U$GT$$GT$4into17h35ab6a984b0e06f4E
c01221b0 T _ZN79_$LT$core..result..Result$LT$T$C$E$GT$$u20$as$u20$core..ops..try_trait..Try$GT$6branch17h2802888d69a5a0eeE
c0122240 T _ZN79_$LT$core..result..Result$LT$T$C$E$GT$$u20$as$u20$core..ops..try_trait..Try$GT$6branch17h3a4674423ec9e321E
c01222b0 T _ZN79_$LT$core..result..Result$LT$T$C$E$GT$$u20$as$u20$core..ops..try_trait..Try$GT$6branch17h99f9b64b5f45e8e2E
c0122300 T _ZN79_$LT$core..result..Result$LT$T$C$E$GT$$u20$as$u20$core..ops..try_trait..Try$GT$6branch17h9bdbe3a90f80b010E
c0122380 T _ZN79_$LT$core..result..Result$LT$T$C$E$GT$$u20$as$u20$core..ops..try_trait..Try$GT$6branch17hb43eb782c7a93a0aE
c0122400 T _ZN79_$LT$core..result..Result$LT$T$C$E$GT$$u20$as$u20$core..ops..try_trait..Try$GT$6branch17hb7b339ceeb028eecE
c0122480 t _ZN5alloc5alloc5alloc17h30a242b846ac15fbE
c0122500 t _ZN5alloc5alloc7dealloc17hdfaf6b7374ad5736E
c0122580 t _ZN5alloc5alloc7realloc17hf41b017c77672b7bE
c0122600 t _ZN5alloc5alloc12alloc_zeroed17heb9bcecd94edf7beE
c0122680 t _ZN5alloc5alloc6Global10alloc_impl17hc16362c991afc009E
c0122800 t _ZN5alloc5alloc6Global9grow_impl17h84ac55005cdb26faE
c0122dd0 T _ZN63_$LT$alloc..alloc..Global$u20$as$u20$core..alloc..Allocator$GT$8allocate17he1d93b8e4e57022fE
c0122e20 T _ZN63_$LT$alloc..alloc..Global$u20$as$u20$core..alloc..Allocator$GT$10deallocate17h9629146025811cc3E
c0122e90 T _ZN63_$LT$alloc..alloc..Global$u20$as$u20$core..alloc..Allocator$GT$4grow17hd3455b3d92db5d11E
c0122efa T _ZN5alloc5alloc18handle_alloc_error17h045a88b812dda009E
c0122f30 t _ZN5alloc5alloc18handle_alloc_error8rt_error17hdbb68c6b818ed2f9E
c0122f90 T _RNvCsW2kLHQHBa7_7___rustc9___rdl_oom
c01230a0 T _ZN5alloc11collections15TryReserveError4kind17h9631b7eebb532e46E
c01230c0 t _ZN122_$LT$alloc..collections..TryReserveError$u20$as$u20$core..convert..From$LT$alloc..collections..TryReserveErrorKind$GT$$GT$4from17h0283e05c7790b7b1E
c01230e0 t _ZN78_$LT$alloc..collections..TryReserveErrorKind$u20$as$u20$core..clone..Clone$GT$5clone17h79a112fdd698d984E
c0123160 T _ZN4core3num23_$LT$impl$u20$usize$GT$9repeat_u817h8d2bce72144bdff0E
c01231a0 T _ZN4core3num21_$LT$impl$u20$u16$GT$13unchecked_add18precondition_check17h2686208caed683edE
c0123200 T _ZN4core3num23_$LT$impl$u20$usize$GT$11checked_sub17h860c5a005a50149dE
c0123250 T _ZN4core3num23_$LT$impl$u20$usize$GT$11checked_mul17h45b91f7fbbb1c1ffE
c01232d0 t _ZN4core3num23_$LT$impl$u20$usize$GT$13from_ne_bytes17h263105b11e7d7885E
c01232f0 T _ZN4core3num23_$LT$impl$u20$usize$GT$13unchecked_add18precondition_check17h49c5e44f3b0e5fb7E
c0123350 T _ZN4core3fmt3num12GenericRadix7fmt_int17h78aaeec243d8a027E
c01237d0 T _ZN4core3fmt3num12GenericRadix7fmt_int17ha995b5cce3980ef3E
c0123c50 T _ZN4core3fmt3num12GenericRadix7fmt_int17hbb14cf4b8a6f74f5E
c01240d0 T _ZN4core3fmt3num12GenericRadix7fmt_int17hd4cf69129e36311cE
c0124550 T _ZN4core3fmt3num12GenericRadix7fmt_int17hdefa674cf404c53eE
c01249f0 T _ZN4core3fmt3num12GenericRadix7fmt_int17he0de4e1238365003E
c0124e70 T _ZN49_$LT$u8$u20$as$u20$core..fmt..num..DisplayInt$GT$4zero17hf807eec7c504de2dE
c0124e80 T _ZN49_$LT$u8$u20$as$u20$core..fmt..num..DisplayInt$GT$7from_u817hcb560ac556207df7E
c0124e90 T _ZN49_$LT$u8$u20$as$u20$core..fmt..num..DisplayInt$GT$5to_u817h299fbb1e81bec7ebE
c0124ea0 T _ZN50_$LT$u32$u20$as$u20$core..fmt..num..DisplayInt$GT$4zero17h5474867cdff4848fE
c0124eb0 T _ZN50_$LT$u32$u20$as$u20$core..fmt..num..DisplayInt$GT$7from_u817h4e470a29c3c3b267E
c0124ec0 T _ZN50_$LT$u32$u20$as$u20$core..fmt..num..DisplayInt$GT$5to_u817h96231d7bbd677aa2E
c0124ed0 T _ZN52_$LT$usize$u20$as$u20$core..fmt..num..DisplayInt$GT$4zero17h63743304089e7ba0E
c0124ee0 T _ZN52_$LT$usize$u20$as$u20$core..fmt..num..DisplayInt$GT$7from_u817h36e4783d6fa7d89eE
c0124ef0 T _ZN52_$LT$usize$u20$as$u20$core..fmt..num..DisplayInt$GT$5to_u817h3b1b00bc226d6201E
c0124f00 T _ZN71_$LT$core..fmt..num..Binary$u20$as$u20$core..fmt..num..GenericRadix$GT$5digit17haaf564e45b8446b3E
c0125000 T _ZN73_$LT$core..fmt..num..LowerHex$u20$as$u20$core..fmt..num..GenericRadix$GT$5digit17h86a49f6db1a8e614E
c0125180 T _ZN73_$LT$core..fmt..num..UpperHex$u20$as$u20$core..fmt..num..GenericRadix$GT$5digit17h3af18de6c8e46bbcE
c0125300 T _ZN4core3fmt3num53_$LT$impl$u20$core..fmt..Binary$u20$for$u20$usize$GT$3fmt17hb596d745c875348cE
c0125340 T _ZN4core3fmt3num55_$LT$impl$u20$core..fmt..LowerHex$u20$for$u20$usize$GT$3fmt17h484b45ccf1c21fbdE
c0125380 T _ZN4core3fmt3num55_$LT$impl$u20$core..fmt..UpperHex$u20$for$u20$usize$GT$3fmt17h11c795f3e401ff90E
c01253c0 T _ZN4core3fmt3num52_$LT$impl$u20$core..fmt..LowerHex$u20$for$u20$u8$GT$3fmt17hf057dbb53905505fE
c0125400 T _ZN4core3fmt3num53_$LT$impl$u20$core..fmt..LowerHex$u20$for$u20$u32$GT$3fmt17h6d266968256f149cE
c0125440 T _ZN4core3fmt3num53_$LT$impl$u20$core..fmt..UpperHex$u20$for$u20$u32$GT$3fmt17he4a9cf38b3bc81a5E
c0125480 T _ZN4core3fmt3num52_$LT$impl$u20$core..fmt..Debug$u20$for$u20$usize$GT$3fmt17h241aa8dd4159e85bE
c0125540 T _ZN4core3ops8function6FnOnce9call_once17hdd12c0f284ac1f21E
c0125570 T _ZN4core4iter8adapters6filter19Filter$LT$I$C$P$GT$3new17h3399bb12bbe617ebE
c0125590 T _ZN108_$LT$core..iter..adapters..filter..Filter$LT$I$C$P$GT$$u20$as$u20$core..iter..traits..iterator..Iterator$GT$5count17he14b53e6898a51daE
c01255f0 T _ZN108_$LT$core..iter..adapters..filter..Filter$LT$I$C$P$GT$$u20$as$u20$core..iter..traits..iterator..Iterator$GT$5count8to_usize17h7c543cf71a85daa0E
c0125600 T _ZN108_$LT$core..iter..adapters..filter..Filter$LT$I$C$P$GT$$u20$as$u20$core..iter..traits..iterator..Iterator$GT$5count8to_usize28_$u7b$$u7b$closure$u7d$$u7d$17h20e8289d9c3c9843E
c0125640 T _ZN4core3fmt3num3imp51_$LT$impl$u20$core..fmt..Display$u20$for$u20$u8$GT$3fmt17h331ccde3d2620e82E
c0125680 t _ZN4core3fmt3num3imp20_$LT$impl$u20$u8$GT$4_fmt17h9c8612984b5a3587E
c0126540 T _ZN4core3fmt3num3imp52_$LT$impl$u20$core..fmt..Display$u20$for$u20$u32$GT$3fmt17hcfb4e4eeef155d89E
c0126580 t _ZN4core3fmt3num3imp21_$LT$impl$u20$u32$GT$4_fmt17hf090025fa2c755e8E
c0127450 T _ZN4core3fmt3num3imp54_$LT$impl$u20$core..fmt..Display$u20$for$u20$usize$GT$3fmt17h94bfe35b500265d5E
c0127490 t _ZN4core3fmt3num3imp23_$LT$impl$u20$usize$GT$4_fmt17h0861a46fa2692721E
c0128360 t _ZN4core5slice6memchr18contains_zero_byte17h14ec09c82b96d70aE
c0128390 T _ZN4core5slice6memchr6memchr17hba57b19c026e4f7bE
c0128460 t _ZN4core5slice6memchr12memchr_naive17h81e0be486f15de22E
c0128550 T _ZN4core5slice6memchr14memchr_aligned17h138f508f5510e90cE
c01285b0 T _ZN4core5slice3cmp81_$LT$impl$u20$core..cmp..PartialEq$LT$$u5b$U$u5d$$GT$$u20$for$u20$$u5b$T$u5d$$GT$2eq17h681d7b676b414e1dE
c0128600 T _ZN73_$LT$$u5b$A$u5d$$u20$as$u20$core..slice..cmp..SlicePartialEq$LT$B$GT$$GT$5equal17h984ff3230ab1f2beE
c01286c0 T _ZN4core3str8converts19from_utf8_unchecked17hd0e91026aaa4cad1E
c01286e0 T _ZN4core3str8converts23from_utf8_unchecked_mut17ha9879307e3ab4955E
c0128700 T _ZN4core5alloc6layout6Layout19is_size_align_valid17hce415ed9e563c273E
c01287a0 T _ZN4core7convert3num18ptr_try_from_impls68_$LT$impl$u20$core..convert..TryFrom$LT$usize$GT$$u20$for$u20$u8$GT$8try_from17h940c10ed41daab51E
c01287d0 T _ZN4core7convert3num18ptr_try_from_impls69_$LT$impl$u20$core..convert..TryFrom$LT$i32$GT$$u20$for$u20$usize$GT$8try_from17h9d65fa681ead596fE
c0128810 t _ZN4core5slice6memchr14memchr_aligned7runtime17ha1d111161e0c1da1E
c0128dc0 T _ZN4core3num7nonzero16NonZero$LT$T$GT$3new17h3972487858a4133fE
c0128dd0 T _ZN4core3num7nonzero16NonZero$LT$T$GT$13new_unchecked17h330053abc383ecbdE
c0128e50 T _ZN4core3num7nonzero16NonZero$LT$T$GT$3get17h1b3f81ddc2d3e9ecE
c0128e60 T _ZN4core5array98_$LT$impl$u20$core..iter..traits..collect..IntoIterator$u20$for$u20$$RF$$u5b$T$u3b$$u20$N$u5d$$GT$9into_iter17h9c36c1878ede79a6E
c0128e90 T _ZN4core5array85_$LT$impl$u20$core..ops..index..Index$LT$I$GT$$u20$for$u20$$u5b$T$u3b$$u20$N$u5d$$GT$5index17h0042ee320de823e5E
c0128fc0 T _ZN4core4iter8adapters3map16Map$LT$I$C$F$GT$3new17ha52d148d50578297E
c0128fe0 T _ZN4core4iter8adapters3map8map_fold17h6ef524dc47aac3beE
c0128ff0 T _ZN4core4iter8adapters3map8map_fold28_$u7b$$u7b$closure$u7d$$u7d$17h2e80b394eb4aee97E
c0129050 T _ZN102_$LT$core..iter..adapters..map..Map$LT$I$C$F$GT$$u20$as$u20$core..iter..traits..iterator..Iterator$GT$4fold17h2eb04d58d4fbca40E
c01290b0 T _ZN4core4iter6traits8iterator8Iterator3sum17h44eda8ca25209798E
c01290f0 T _ZN4core5panic8location8Location6caller17h900f119709ae3232E
c0129100 T _ZN70_$LT$core..panic..location..Location$u20$as$u20$core..fmt..Display$GT$3fmt17hb2293cd594e83aeaE
c01291f0 T _ZN4core3str5count11count_chars17h1732736369f042bdE
c01292b0 T _ZN4core3str5count14do_count_chars17h953823b2c34be4ceE
c01298b0 t _ZN4core3str5count30contains_non_continuation_byte17h8e9048114ba50a29E
c01298d0 t _ZN4core3str5count18sum_bytes_in_usize17he948b7c4da7c64eaE
c0129990 T _ZN4core3str5count23char_count_general_case17ha3bcb7fca16f15bfE
c01299f0 T _ZN4core3str5count23char_count_general_case28_$u7b$$u7b$closure$u7d$$u7d$17hcb448063a20a3566E
c0129a30 t _ZN4core3num7nonzero16NonZero$LT$T$GT$13new_unchecked18precondition_check17hb36021243776490cE
c0129a60 T _ZN4core3ptr9const_ptr43_$LT$impl$u20$$BP$const$u20$$u5b$T$u5d$$GT$3len17hbcd87d33b239d67cE
c0129aa0 T _ZN50_$LT$T$u20$as$u20$core..convert..Into$LT$U$GT$$GT$4into17h986ac8c14d009ee5E
c0129ab0 T _ZN53_$LT$T$u20$as$u20$core..convert..TryInto$LT$U$GT$$GT$8try_into17h067466d69fd80f08E
c0129ad0 T _ZN53_$LT$T$u20$as$u20$core..convert..TryInto$LT$U$GT$$GT$8try_into17hee16971088129cd3E
c0129af0 T _ZN53_$LT$T$u20$as$u20$core..convert..TryInto$LT$U$GT$$GT$8try_into17hf35222b26e8b802bE
c0129b10 T _ZN53_$LT$T$u20$as$u20$core..convert..TryInto$LT$U$GT$$GT$8try_into17hf715ba3283b916e1E
c0129b30 T _ZN4core5slice5index26slice_start_index_len_fail17h0220b69018e275c1E
c0129b70 T _ZN4core5slice5index24slice_end_index_len_fail17he817e58a7301586cE
c0129bb0 T _ZN4core5slice5index22slice_index_order_fail17he8fe8e242d46106bE
c0129bf0 T _ZN75_$LT$usize$u20$as$u20$core..slice..index..SliceIndex$LT$$u5b$T$u5d$$GT$$GT$3get17h85fccb12ec4a60f3E
c0129c50 T _ZN75_$LT$usize$u20$as$u20$core..slice..index..SliceIndex$LT$$u5b$T$u5d$$GT$$GT$13get_unchecked17h671ad27ef43b7fb9E
c0129d00 T _ZN75_$LT$usize$u20$as$u20$core..slice..index..SliceIndex$LT$$u5b$T$u5d$$GT$$GT$13get_unchecked17h6df161b47161de35E
c0129db0 T _ZN75_$LT$usize$u20$as$u20$core..slice..index..SliceIndex$LT$$u5b$T$u5d$$GT$$GT$13get_unchecked17h74ca8585c1657599E
c0129e60 T _ZN4core5slice29_$LT$impl$u20$$u5b$T$u5d$$GT$13get_unchecked17h31a9de6e8659e530E
c0129ea0 T _ZN47_$LT$u16$u20$as$u20$core..iter..range..Step$GT$17forward_unchecked17hd54ad411cfd34d4cE
c0129f10 T _ZN49_$LT$usize$u20$as$u20$core..iter..range..Step$GT$17forward_unchecked17h189d6e3e6f562006E
c0129f70 T _ZN4core5slice5index26slice_start_index_len_fail8do_panic7runtime17h3a025b2f0f0833f3E
c012a030 T _ZN4core5slice5index24slice_end_index_len_fail8do_panic7runtime17h77864fc0ed953eb2E
c012a0f0 T _ZN4core5slice5index22slice_index_order_fail8do_panic7runtime17hb33f614f01be41caE
c012a1b0 t _ZN75_$LT$usize$u20$as$u20$core..slice..index..SliceIndex$LT$$u5b$T$u5d$$GT$$GT$13get_unchecked18precondition_check17h62ef08c449498ac1E
c012a1f0 T _ZN106_$LT$core..ops..range..Range$LT$usize$GT$$u20$as$u20$core..slice..index..SliceIndex$LT$$u5b$T$u5d$$GT$$GT$13get_unchecked18precondition_check17heac5fc8520c2b10bE
c012a250 T _ZN4core3str6traits108_$LT$impl$u20$core..slice..index..SliceIndex$LT$str$GT$$u20$for$u20$core..ops..range..Range$LT$usize$GT$$GT$13get_unchecked18precondition_check17he271a773a2fa5e79E
c012a2b0 T _ZN4core3ptr9const_ptr43_$LT$impl$u20$$BP$const$u20$$u5b$T$u5d$$GT$3len17h104de01909ebb492E
c012a2f0 T _ZN4core9panicking9panic_fmt17hb8198600a5d092f0E
c012a360 T _ZN4core9panicking18panic_nounwind_fmt17h057e687b5ee126abE
c012a3e0 T _ZN4core9panicking5panic17h6b04f9b945818ca7E
c012a450 T _ZN4core9panicking14panic_nounwind17h40a1b066f4afc75bE
c012a4c0 T _ZN4core9panicking13panic_display17had066ac27afb4020E
c012a53f T _ZN4core9panicking18panic_bounds_check17h025e24aa85d89862E
c012a5f1 T _ZN4core9panicking36panic_misaligned_pointer_dereference17h4be3ab2702400633E
c012a6c7 T _ZN4core9panicking30panic_null_pointer_dereference17hd240e74c1d9d980eE
c012a71a T _ZN4core9panicking13assert_failed17hf9d52ad806b372fdE
c012a781 T _ZN4core9panicking19assert_failed_inner17h99920909b04a9dd6E
c012aa90 T _ZN4core3fmt2rt8Argument11new_display17h12e5b31148261753E
c012ab10 T _ZN4core3fmt2rt8Argument11new_display17h60aff1c9747988a9E
c012ab90 T _ZN4core3fmt2rt8Argument11new_display17h71d1a98d28b81ccfE
c012ac10 T _ZN4core3fmt2rt8Argument11new_display17h77385a78831a1e8eE
c012ac90 T _ZN4core3fmt2rt8Argument11new_display17h798f5c4200e2c83aE
c012ad10 T _ZN4core3fmt2rt8Argument9new_debug17h47148afbbfda17f4E
c012ad90 T _ZN4core3fmt2rt8Argument13new_lower_hex17h4b114f528039d446E
c012ae10 T _ZN4core3fmt2rt8Argument13new_lower_hex17h9beaf3137b07d41aE
c012ae90 T _ZN4core3fmt2rt8Argument13new_lower_hex17hcee067e99bd00516E
c012af10 T _ZN4core3fmt2rt8Argument13new_upper_hex17ha83496939da93addE
c012af90 T _ZN4core3fmt2rt8Argument3fmt17ha3a160245e04c629E
c012b010 T _ZN4core3fmt2rt8Argument6as_u1617ha5a95fe830f692e8E
c012b080 T _ZN4core3fmt2rt9UnsafeArg3new17ha7bdfb888348cbf7E
c012b090 T _ZN4core5slice29_$LT$impl$u20$$u5b$T$u5d$$GT$13get_unchecked17hd47e2da267cf2dbdE
c012b0d0 T _ZN4core5slice29_$LT$impl$u20$$u5b$T$u5d$$GT$4iter17hd149bad57940621fE
c012b110 T _ZN4core5slice29_$LT$impl$u20$$u5b$T$u5d$$GT$4iter17hfbd64dde22ab10ecE
c012b150 t _ZN4core9panicking18panic_nounwind_fmt7runtime17h46dd0dd753ab3e82E
c012b1d0 T _ZN4core4iter8adapters9enumerate18Enumerate$LT$I$GT$3new17h01f00f63e2372f68E
c012b200 T _ZN4core4iter8adapters9enumerate18Enumerate$LT$I$GT$3new17h45d5710e3bc43833E
c012b230 T _ZN110_$LT$core..iter..adapters..enumerate..Enumerate$LT$I$GT$$u20$as$u20$core..iter..traits..iterator..Iterator$GT$4next17h1e5acd00c1988075E
c012b310 T _ZN110_$LT$core..iter..adapters..enumerate..Enumerate$LT$I$GT$$u20$as$u20$core..iter..traits..iterator..Iterator$GT$4next17h5de24bc215a9ec66E
c012b3f0 T _ZN63_$LT$I$u20$as$u20$core..iter..traits..collect..IntoIterator$GT$9into_iter17h135da0b7154eb553E
c012b410 T _ZN63_$LT$I$u20$as$u20$core..iter..traits..collect..IntoIterator$GT$9into_iter17h8dad1fe1d49d6fa1E
c012b430 T _ZN63_$LT$I$u20$as$u20$core..iter..traits..collect..IntoIterator$GT$9into_iter17hc09b5b77de541f70E
c012b460 T _ZN63_$LT$I$u20$as$u20$core..iter..traits..collect..IntoIterator$GT$9into_iter17hc80993b801e45518E
c012b480 T _ZN4core4iter6traits8iterator8Iterator10advance_by17hb9fd2ffb289c0e2eE
c012b570 T _ZN79_$LT$core..fmt..builders..PadAdapterState$u20$as$u20$core..default..Default$GT$7default17hb393b4984c1d0bf1E
c012b580 T _ZN4core3fmt8builders10PadAdapter4wrap17h173ded6971411578E
c012b5d0 T _ZN4core3fmt8builders10PadAdapter4wrap28_$u7b$$u7b$closure$u7d$$u7d$17ha534f18dfea3d5d0E
c012b640 T _ZN68_$LT$core..fmt..builders..PadAdapter$u20$as$u20$core..fmt..Write$GT$9write_str17h5fb22283ce5ef8beE
c012b860 T _ZN68_$LT$core..fmt..builders..PadAdapter$u20$as$u20$core..fmt..Write$GT$10write_char17hff64d6f6df4f16c9E
c012b930 T _ZN4core3fmt8builders16debug_struct_new17h275a8674b28c586eE
c012b9a0 T _ZN4core3fmt8builders11DebugStruct5field17h13e5694c9f731563E
c012ba00 t _ZN4core3fmt8builders11DebugStruct5field28_$u7b$$u7b$closure$u7d$$u7d$17h1cf376990ba235f9E
c012ba40 T _ZN4core3fmt8builders11DebugStruct10field_with17h0c9692b349638cffE
c012bac0 T _ZN4core3fmt8builders11DebugStruct10field_with28_$u7b$$u7b$closure$u7d$$u7d$17h5340323f1458e62fE
c012beb0 T _ZN4core3fmt8builders11DebugStruct6finish17h1bb7a41a26288facE
c012bf10 T _ZN4core3fmt8builders11DebugStruct6finish28_$u7b$$u7b$closure$u7d$$u7d$17hdc0c71834e395593E
c012bfa0 T _ZN4core3fmt8builders11DebugStruct9is_pretty17h57f1844d64b662b4E
c012bfd0 T _ZN4core3fmt8builders15debug_tuple_new17hc520554e110847d2E
c012c070 T _ZN4core3fmt8builders10DebugTuple5field17h525598ce2520abdcE
c012c0b0 t _ZN4core3fmt8builders10DebugTuple5field28_$u7b$$u7b$closure$u7d$$u7d$17hb10e07cf230937c9E
c012c0f0 T _ZN4core3fmt8builders10DebugTuple10field_with17h6301c5ddb8e6e176E
c012c180 T _ZN4core3fmt8builders10DebugTuple10field_with28_$u7b$$u7b$closure$u7d$$u7d$17hfa14a7906a2fb3bcE
c012c3f0 T _ZN4core3fmt8builders10DebugTuple6finish17hecc688c1dc347efeE
c012c450 T _ZN4core3fmt8builders10DebugTuple6finish28_$u7b$$u7b$closure$u7d$$u7d$17h164c0b2335a65f5eE
c012c530 T _ZN4core3fmt8builders10DebugTuple9is_pretty17h7d979a28901d9f40E
c012c560 T _ZN4core3fmt5Write9write_fmt17he194fda1f75f44a0E
c012c5c0 T _ZN75_$LT$$RF$mut$u20$W$u20$as$u20$core..fmt..Write..write_fmt..SpecWriteFmt$GT$14spec_write_fmt17ha71ea84977b4e005E
c012c6b0 T _ZN81_$LT$core..str..iter..Chars$u20$as$u20$core..iter..traits..iterator..Iterator$GT$4next17h47ed81bfbc868f27E
c012c6f0 T _ZN81_$LT$core..str..iter..Chars$u20$as$u20$core..iter..traits..iterator..Iterator$GT$4next28_$u7b$$u7b$closure$u7d$$u7d$17h84e428ab97cdda2fE
c012c720 T _ZN81_$LT$core..str..iter..Chars$u20$as$u20$core..iter..traits..iterator..Iterator$GT$5count17h2585d5d3e5a7800bE
c012c770 T _ZN4core3str4iter5Chars6as_str17h4b96aad47595b497E
c012c7b0 T _ZN87_$LT$core..str..iter..CharIndices$u20$as$u20$core..iter..traits..iterator..Iterator$GT$4next17h65c875fdde227434E
c012c900 T _ZN4core3str4iter11CharIndices6offset17he849bdced8470113E
c012c910 T _ZN4core3str4iter22SplitInternal$LT$P$GT$7get_end17he6752f8a4db2b9c0E
c012c9e0 T _ZN4core3str4iter22SplitInternal$LT$P$GT$14next_inclusive17he8f295f21b6aaec7E
c012cad0 T _ZN99_$LT$core..str..iter..SplitInclusive$LT$P$GT$$u20$as$u20$core..iter..traits..iterator..Iterator$GT$4next17h7090cc720bb7cdf8E
c012caf0 T _ZN4core7convert3num66_$LT$impl$u20$core..convert..TryFrom$LT$i32$GT$$u20$for$u20$u8$GT$8try_from17h99c51187f9d4ebd9E
c012cb40 T _ZN4core7convert3num67_$LT$impl$u20$core..convert..TryFrom$LT$i32$GT$$u20$for$u20$u32$GT$8try_from17h2f088bcf84750f86E
c012cb80 T _ZN47_$LT$usize$u20$as$u20$core..ops..arith..Sub$GT$3sub17h0299b3103f3ca43dE
c012cbd0 T _ZN44_$LT$u8$u20$as$u20$core..ops..arith..Sub$GT$3sub17hb0e8eec5c84b29f1E
c012cc20 T _ZN45_$LT$u32$u20$as$u20$core..ops..arith..Sub$GT$3sub17hea33385e12bb009aE
c012cc70 T _ZN47_$LT$usize$u20$as$u20$core..ops..arith..Div$GT$3div17hc951db0435f1ab8eE
c012ccd0 T _ZN44_$LT$u8$u20$as$u20$core..ops..arith..Div$GT$3div17hd03a2ec2c58a0af6E
c012cd30 T _ZN45_$LT$u32$u20$as$u20$core..ops..arith..Div$GT$3div17h8ffba1c4dc682ac3E
c012cd90 T _ZN47_$LT$usize$u20$as$u20$core..ops..arith..Rem$GT$3rem17haed3612ae6fcd51dE
c012cdf0 T _ZN44_$LT$u8$u20$as$u20$core..ops..arith..Rem$GT$3rem17h8b4badbc4b501d6cE
c012ce50 T _ZN45_$LT$u32$u20$as$u20$core..ops..arith..Rem$GT$3rem17h0f61c2f86c209dbeE
c012ceb0 T _ZN4core3fmt17FormattingOptions3new17h4036c0ff51ad1e9aE
c012ced0 T _ZN4core3fmt17FormattingOptions19sign_aware_zero_pad17h87fd5fba89c84862E
c012cf10 T _ZN4core3fmt17FormattingOptions9alternate17hd873a1fd7b24475fE
c012cf50 T _ZN4core3fmt17FormattingOptions4fill17h938e005664041e19E
c012cf70 T _ZN4core3fmt17FormattingOptions5align17h065b06e5a77b4cfeE
c012d000 T _ZN4core3fmt17FormattingOptions5width17haaf3d2bb12a55c11E
c012d070 T _ZN4core3fmt17FormattingOptions13get_alternate17h5e7e9a1b24edc7ffE
c012d090 T _ZN4core3fmt17FormattingOptions8get_fill17h2eca5d5825e25404E
c012d0c0 T _ZN4core3fmt17FormattingOptions9get_align17hb187ced4e3c91cfaE
c012d130 T _ZN4core3fmt17FormattingOptions9get_width17h1425b8ca3dcb48dfE
c012d170 T _ZN4core3fmt17FormattingOptions13get_precision17h0b634c79eba045ffE
c012d1b0 T _ZN4core3fmt9Formatter3new17hffe46551bce79253E
c012d1f0 T _ZN4core3fmt9Arguments9new_const17h23ec1950da966a32E
c012d240 T _ZN4core3fmt9Arguments6new_v117h27570c6d3d4b21aeE
c012d290 T _ZN4core3fmt9Arguments6new_v117h32642c7b1f1d9cdcE
c012d2e0 T _ZN4core3fmt9Arguments6new_v117hb579d89d8c758417E
c012d330 T _ZN4core3fmt9Arguments6new_v117hc40f831b7d7981c1E
c012d380 T _ZN4core3fmt9Arguments6new_v117hc8a2604b244add73E
c012d3d0 T _ZN4core3fmt9Arguments6new_v117he1a890ffb31ee4b8E
c012d420 T _ZN4core3fmt9Arguments6new_v117he4914298b0dd4758E
c012d470 T _ZN4core3fmt9Arguments16new_v1_formatted17hdac5db48c1f3be10E
c012d4e0 T _ZN4core3fmt9Arguments6as_str17h9fea4c0cff9aad75E
c012d560 T _ZN4core3fmt9Arguments23as_statically_known_str17h6659eb585e4343dbE
c012d5d0 T _ZN59_$LT$core..fmt..Arguments$u20$as$u20$core..fmt..Display$GT$3fmt17hf95b0f28befa2637E
c012d640 T _ZN4core3fmt5write17h5e409c1c2bcf572eE
c012dc40 t _ZN4core3fmt3run17h700227a743ee54dcE
c012dd60 t _ZN4core3fmt8getcount17hb65cd594a54a9f8dE
c012de80 t _ZN4core3fmt11PostPadding3new17h28eea56274a71457E
c012de90 t _ZN4core3fmt11PostPadding5write17h576b500f78c2e6d1E
c012df70 T _ZN4core3fmt9Formatter8wrap_buf17h55329c2443373cb4E
c012dff0 T _ZN4core3fmt9Formatter12pad_integral17h615162a760dd9b74E
c012e730 t _ZN4core3fmt9Formatter12pad_integral12write_prefix17h7637fa425d843b83E
c012e860 T _ZN4core3fmt9Formatter3pad17hdd2d54c117be8cf3E
c012eca0 t _ZN4core3fmt9Formatter7padding17h86f8daedfd63fec9E
c012ee60 T _ZN4core3fmt9Formatter9write_str17h21fb0dcf8774c4f6E
c012eea0 T _ZN4core3fmt9Formatter9write_fmt17hc3227a6b4f7d15c2E
c012efa0 T _ZN4core3fmt9Formatter9sign_plus17hd3fef849afa34dd0E
c012efc0 T _ZN4core3fmt9Formatter9alternate17h9023952b8115d8acE
c012efe0 T _ZN4core3fmt9Formatter19sign_aware_zero_pad17h55dd6c569e036456E
c012f000 T _ZN4core3fmt9Formatter15debug_lower_hex17h45027a096dc83dcfE
c012f020 T _ZN4core3fmt9Formatter15debug_upper_hex17hc1c76cc5d34cbc64E
c012f040 T _ZN4core3fmt9Formatter12debug_struct17h30989ea4493522d6E
c012f0a0 T _ZN4core3fmt9Formatter25debug_tuple_field1_finish17heba9e25072853113E
c012f140 T _ZN42_$LT$str$u20$as$u20$core..fmt..Display$GT$3fmt17ha6f215f451a9b4d8E
c012f180 T _ZN4core3fmt17pointer_fmt_inner17h2667d8962fb7806eE
c012f2e0 t _ZN45_$LT$$LP$$RP$$u20$as$u20$core..fmt..Debug$GT$3fmt17hb7fdca62aef6e714E
c012f320 T _ZN42_$LT$$RF$T$u20$as$u20$core..fmt..Debug$GT$3fmt17h06c0f15f4cd8cf38E
c012f350 T _ZN42_$LT$$RF$T$u20$as$u20$core..fmt..Debug$GT$3fmt17h06deb6cab0c842b1E
c012f380 T _ZN42_$LT$$RF$T$u20$as$u20$core..fmt..Debug$GT$3fmt17h9af06467507af47fE
c012f3b0 T _ZN44_$LT$$RF$T$u20$as$u20$core..fmt..Display$GT$3fmt17h4a18116ffc7b2d3aE
c012f3f0 T _ZN4core3ptr8non_null16NonNull$LT$T$GT$8from_ref17h0c01b82ce9ccbe7eE
c012f400 T _ZN4core3ptr8non_null16NonNull$LT$T$GT$8from_ref17h18ccdbcd4171c6baE
c012f420 T _ZN4core3ptr8non_null16NonNull$LT$T$GT$8from_ref17h2103a8a32d60439aE
c012f430 T _ZN4core3ptr8non_null16NonNull$LT$T$GT$8from_ref17h3917af4e96758e91E
c012f440 T _ZN4core3ptr8non_null16NonNull$LT$T$GT$8from_ref17h5f68bcadc557b3e5E
c012f450 T _ZN4core3ptr8non_null16NonNull$LT$T$GT$8from_ref17h614bca50157ab41dE
c012f470 T _ZN4core3ptr8non_null16NonNull$LT$T$GT$8from_ref17h73bf1a4b01a447cbE
c012f480 T _ZN4core3ptr8non_null16NonNull$LT$T$GT$8from_ref17h76d3a438e5a92514E
c012f4a0 T _ZN4core3ptr8non_null16NonNull$LT$T$GT$8from_ref17ha7196ac9f71a2ac7E
c012f4c0 T _ZN4core3ptr8non_null16NonNull$LT$T$GT$8from_ref17hbe797d62e8ea134eE
c012f4d0 T _ZN4core3ptr8non_null16NonNull$LT$T$GT$8from_ref17hdea67a4c53442b64E
c012f4f0 T _ZN4core3ptr8non_null16NonNull$LT$T$GT$4cast17h0974e3ef6b90d2b4E
c012f500 T _ZN4core3ptr8non_null16NonNull$LT$T$GT$4cast17h11d7e228536e01e3E
c012f510 T _ZN4core3ptr8non_null16NonNull$LT$T$GT$4cast17h38d3f9fb373c7828E
c012f530 T _ZN4core3ptr8non_null16NonNull$LT$T$GT$4cast17h4366c4c6e36b0b45E
c012f550 T _ZN4core3ptr8non_null16NonNull$LT$T$GT$4cast17h55e67e7cdbad3e04E
c012f560 T _ZN4core3ptr8non_null16NonNull$LT$T$GT$4cast17h712622c07180731fE
c012f580 T _ZN4core3ptr8non_null16NonNull$LT$T$GT$4cast17h7c57d7e8164ad304E
c012f590 T _ZN4core3ptr8non_null16NonNull$LT$T$GT$4cast17h8bd3cfb9c7623bb8E
c012f5b0 T _ZN4core3ptr8non_null16NonNull$LT$T$GT$4cast17ha09e30b369ad5387E
c012f5c0 T _ZN4core3ptr8non_null16NonNull$LT$T$GT$4cast17hdf4f138cbab55edfE
c012f5e0 T _ZN4core3ptr8non_null16NonNull$LT$T$GT$4cast17hecd02c2835708773E
c012f5f0 T _ZN4core3ptr8non_null16NonNull$LT$T$GT$20offset_from_unsigned17h0648ca4b37813da1E
c012f630 T _ZN78_$LT$core..ptr..non_null..NonNull$LT$T$GT$$u20$as$u20$core..cmp..PartialEq$GT$2eq17h1994a4f6fa0c37d1E
c012f660 T _ZN78_$LT$core..ptr..non_null..NonNull$LT$T$GT$$u20$as$u20$core..cmp..PartialEq$GT$2eq17h224bf27630ed382eE
c012f690 T _ZN78_$LT$core..ptr..non_null..NonNull$LT$T$GT$$u20$as$u20$core..cmp..PartialEq$GT$2eq17h3fdbf2c4a2a25624E
c012f6c0 T _ZN78_$LT$core..ptr..non_null..NonNull$LT$T$GT$$u20$as$u20$core..cmp..PartialEq$GT$2eq17h8e04dc192ec72c01E
c012f6f0 T _ZN78_$LT$core..ptr..non_null..NonNull$LT$T$GT$$u20$as$u20$core..cmp..PartialEq$GT$2eq17hd83398d0f4ab8873E
c012f720 T _ZN4core3cmp5impls69_$LT$impl$u20$core..cmp..PartialEq$LT$$RF$B$GT$$u20$for$u20$$RF$A$GT$2eq17h2c7e37421c768462E
c012f760 T _ZN4core3cmp5impls56_$LT$impl$u20$core..cmp..PartialEq$u20$for$u20$usize$GT$2eq17h4cb63fdd651cb67fE
c012f780 T _ZN4core3cmp5impls53_$LT$impl$u20$core..cmp..PartialEq$u20$for$u20$u8$GT$2eq17h93743196d76726e4E
c012f7a0 T _ZN4core3cmp5impls54_$LT$impl$u20$core..cmp..PartialEq$u20$for$u20$u32$GT$2eq17h937f141ee17d017eE
c012f7c0 T _ZN56_$LT$usize$u20$as$u20$core..iter..traits..accum..Sum$GT$3sum17hc1ba18fb3d9a929fE
c012f800 T _ZN56_$LT$usize$u20$as$u20$core..iter..traits..accum..Sum$GT$3sum28_$u7b$$u7b$closure$u7d$$u7d$17h60786b9385905e5dE
c012f850 T _ZN70_$LT$core..num..error..TryFromIntError$u20$as$u20$core..fmt..Debug$GT$3fmt17h7be9c133d34272f6E
c012f8a0 T _ZN63_$LT$I$u20$as$u20$core..iter..traits..collect..IntoIterator$GT$9into_iter17hd3f46736d1444f3eE
c012f8c0 T _ZN4core4iter6traits8iterator8Iterator3map17h3ca07c75707cbfb4E
c012f900 T _ZN4core4iter6traits8iterator8Iterator6filter17hf1a2ec9c51ad8969E
c012f940 T _ZN4core4iter6traits8iterator8Iterator9enumerate17h38f76e68b1474b04E
c012f990 T _ZN4core4iter6traits8iterator8Iterator9enumerate17haf2c6f50d4c2b4abE
c012f9e0 T _ZN4core4sync6atomic11atomic_load17h34c8ba0b5fcb6a88E
c012fac0 T _ZN4core4sync6atomic11atomic_load17h6e1ca32547c2f096E
c012fba0 T _ZN4core5slice4iter87_$LT$impl$u20$core..iter..traits..collect..IntoIterator$u20$for$u20$$RF$$u5b$T$u5d$$GT$9into_iter17h9da66ee4846eb12cE
c012fbe0 T _ZN4core5slice4iter87_$LT$impl$u20$core..iter..traits..collect..IntoIterator$u20$for$u20$$RF$$u5b$T$u5d$$GT$9into_iter17heb5eb5f084be5808E
c012fc20 T _ZN4core5slice4iter13Iter$LT$T$GT$3new17h19048257dd00c1cfE
c012fcd0 T _ZN4core5slice4iter13Iter$LT$T$GT$3new17h37667cc48d2cf7dcE
c012fd80 T _ZN4core5slice4iter13Iter$LT$T$GT$3new17h8975b4d922848c8aE
c012fe30 T _ZN4core5slice4iter13Iter$LT$T$GT$3new17hb77eb8c737d227e8E
c012fee0 T _ZN4core5slice4iter13Iter$LT$T$GT$3new17hdc16ac8e755ffc81E
c012ff90 T _ZN4core5slice4iter13Iter$LT$T$GT$8as_slice17hffa7a820dcb3dc1fE
c012fff0 T _ZN4core5slice4iter15Chunks$LT$T$GT$3new17h740abce40c2780beE
c0130020 T _ZN93_$LT$core..slice..iter..Chunks$LT$T$GT$$u20$as$u20$core..iter..traits..iterator..Iterator$GT$4next17h4d80ac752a7fc86dE
c01300f0 T _ZN91_$LT$core..slice..iter..Iter$LT$T$GT$$u20$as$u20$core..iter..traits..iterator..Iterator$GT$4next17h154963a716aee350E
c01301a0 T _ZN91_$LT$core..slice..iter..Iter$LT$T$GT$$u20$as$u20$core..iter..traits..iterator..Iterator$GT$4next17h6d14d06f97c3e364E
c0130250 T _ZN91_$LT$core..slice..iter..Iter$LT$T$GT$$u20$as$u20$core..iter..traits..iterator..Iterator$GT$4next17h755f3b830a12818dE
c0130300 T _ZN91_$LT$core..slice..iter..Iter$LT$T$GT$$u20$as$u20$core..iter..traits..iterator..Iterator$GT$4next17ha6bda403c3dfd083E
c01303b0 T _ZN91_$LT$core..slice..iter..Iter$LT$T$GT$$u20$as$u20$core..iter..traits..iterator..Iterator$GT$4next17hd2a26320a66fe1edE
c0130460 T _ZN91_$LT$core..slice..iter..Iter$LT$T$GT$$u20$as$u20$core..iter..traits..iterator..Iterator$GT$4fold17he19118fe804da7dfE
c01305a0 T _ZN4core3ptr8metadata8metadata17h1797b083e942e5daE
c01305c0 T _ZN4core3ptr8metadata8metadata17h1f8cab6a79e7d75bE
c01305e0 T _ZN4core3ptr8metadata8metadata17h829926aac524bf8bE
c0130600 T _ZN4core3ptr8metadata8metadata17he8419b2497ffe2e0E
c0130620 T _ZN4core3ptr8metadata14from_raw_parts17h333d803428fcc74bE
c0130630 T _ZN4core3ptr8metadata14from_raw_parts17h61e85be75617659eE
c0130640 T _ZN4core3ptr8metadata14from_raw_parts17h7fcb4203624661b1E
c0130650 T _ZN4core3ptr8metadata18from_raw_parts_mut17h80033beff7d15173E
c0130660 t _ZN4core3cmp8Ordering6as_raw17h5d6a5e000c198659E
c0130670 T _ZN4core3cmp8Ordering5is_lt17h465c20163a32ea32E
c01306a0 T _ZN4core3cmp3Ord3max17hdfc05d02655fbef9E
c0130710 T _ZN4core3cmp3Ord3min17h79d6bfe7b3815956E
c0130780 T _ZN4core3cmp3min17h457dd8e98a246771E
c01307b0 T _ZN4core3cmp3max17he83fed7f4e305b6aE
c01307e0 T _ZN89_$LT$core..ops..range..Range$LT$T$GT$$u20$as$u20$core..iter..range..RangeIteratorImpl$GT$9spec_next17h586787b8d436c174E
c0130870 T _ZN89_$LT$core..ops..range..Range$LT$T$GT$$u20$as$u20$core..iter..range..RangeIteratorImpl$GT$9spec_next17h6f3745fbbe4b4db6E
c0130900 T _ZN4core4iter5range101_$LT$impl$u20$core..iter..traits..iterator..Iterator$u20$for$u20$core..ops..range..Range$LT$A$GT$$GT$4next17hc8b76b8100a36a1aE
c0130920 T _ZN4core4iter5range101_$LT$impl$u20$core..iter..traits..iterator..Iterator$u20$for$u20$core..ops..range..Range$LT$A$GT$$GT$4next17hfab392b0adf4f5d0E
c0130940 T _ZN63_$LT$I$u20$as$u20$core..iter..traits..collect..IntoIterator$GT$9into_iter17h65c09a514d48ae10E
c0130960 T _ZN63_$LT$I$u20$as$u20$core..iter..traits..collect..IntoIterator$GT$9into_iter17hbff4959b3402f787E
c0130980 T _ZN4core6result19Result$LT$T$C$E$GT$5is_ok17hf54256546e3c91ffE
c01309c0 T _ZN4core6result19Result$LT$T$C$E$GT$6expect17h0f9a2bbe833a5015E
c0130a60 T _ZN4core6result19Result$LT$T$C$E$GT$6expect17hb935af45caf41462E
c0130af0 T _ZN4core6result19Result$LT$T$C$E$GT$6expect17he0fdf42e42448beaE
c0130b80 T _ZN4core6result19Result$LT$T$C$E$GT$8and_then17h01b71355707edb4bE
c0130c10 T _ZN4core6result19Result$LT$T$C$E$GT$8and_then17h05564c176b6e2e54E
c0130cb0 T _ZN4core6result19Result$LT$T$C$E$GT$8and_then17h579140627e04cf4aE
c0130d30 T _ZN4core6result19Result$LT$T$C$E$GT$8and_then17h923e355a2b33cb8dE
c0130db0 T _ZN4core6result13unwrap_failed17h2299869262409f70E
c0130e80 T _ZN79_$LT$core..result..Result$LT$T$C$E$GT$$u20$as$u20$core..ops..try_trait..Try$GT$6branch17he0e4712aab7c2543E
c0130f00 T _ZN79_$LT$core..result..Result$LT$T$C$E$GT$$u20$as$u20$core..ops..try_trait..Try$GT$6branch17hef7db11b7d40c7a9E
c0130f40 T _ZN153_$LT$core..result..Result$LT$T$C$F$GT$$u20$as$u20$core..ops..try_trait..FromResidual$LT$core..result..Result$LT$core..convert..Infallible$C$E$GT$$GT$$GT$13from_residual17h0cfbf6f7b0e983b9E
c0130f60 T _ZN153_$LT$core..result..Result$LT$T$C$F$GT$$u20$as$u20$core..ops..try_trait..FromResidual$LT$core..result..Result$LT$core..convert..Infallible$C$E$GT$$GT$$GT$13from_residual17h90916e3b32a3d4bbE
c0130f70 T _ZN106_$LT$core..ops..range..Range$LT$usize$GT$$u20$as$u20$core..slice..index..SliceIndex$LT$$u5b$T$u5d$$GT$$GT$3get17h5cdc4fc7b895427bE
c0131040 T _ZN106_$LT$core..ops..range..Range$LT$usize$GT$$u20$as$u20$core..slice..index..SliceIndex$LT$$u5b$T$u5d$$GT$$GT$13get_unchecked17h039ceb4abab35a9eE
c0131100 T _ZN106_$LT$core..ops..range..Range$LT$usize$GT$$u20$as$u20$core..slice..index..SliceIndex$LT$$u5b$T$u5d$$GT$$GT$13get_unchecked17h05515ecedb9a358aE
c01311c0 T _ZN110_$LT$core..ops..range..RangeFrom$LT$usize$GT$$u20$as$u20$core..slice..index..SliceIndex$LT$$u5b$T$u5d$$GT$$GT$13get_unchecked17hb25bd42eddfffe06E
c0131220 T _ZN110_$LT$core..ops..range..RangeFrom$LT$usize$GT$$u20$as$u20$core..slice..index..SliceIndex$LT$$u5b$T$u5d$$GT$$GT$13get_unchecked17hd3c92a40e60830c7E
c0131280 T _ZN110_$LT$core..ops..range..RangeFrom$LT$usize$GT$$u20$as$u20$core..slice..index..SliceIndex$LT$$u5b$T$u5d$$GT$$GT$5index17hee4f7bdd07d95670E
c0131310 T _ZN4core3str6traits108_$LT$impl$u20$core..slice..index..SliceIndex$LT$str$GT$$u20$for$u20$core..ops..range..Range$LT$usize$GT$$GT$13get_unchecked17h89579614e0aa6236E
c0131420 T _ZN4core3str6traits110_$LT$impl$u20$core..slice..index..SliceIndex$LT$str$GT$$u20$for$u20$core..ops..range..RangeTo$LT$usize$GT$$GT$13get_unchecked17hac955957c94ef591E
c0131470 T _ZN4core3str7pattern12CharSearcher9utf8_size17h4e03f0939345d714E
c01314b0 T _ZN81_$LT$core..str..pattern..CharSearcher$u20$as$u20$core..str..pattern..Searcher$GT$8haystack17hf6c2da9df43ff119E
c01314c0 T _ZN81_$LT$core..str..pattern..CharSearcher$u20$as$u20$core..str..pattern..Searcher$GT$10next_match17haa5b850d023ae5e9E
c0131830 T _ZN52_$LT$char$u20$as$u20$core..str..pattern..Pattern$GT$13into_searcher17h68f70a3b1fd2281eE
c0131940 T _ZN52_$LT$char$u20$as$u20$core..str..pattern..Pattern$GT$12is_suffix_of17hc6cccfaefb59e136E
c01319b0 t _ZN55_$LT$$RF$str$u20$as$u20$core..str..pattern..Pattern$GT$12is_suffix_of17hf7a10aed6d88589aE
c0131a10 T _ZN47_$LT$$LP$$RP$$u20$as$u20$core..unit..IsUnit$GT$7is_unit17h9433c38023980caaE
c0131a20 T _ZN4core4hint21unreachable_unchecked17h11121c4702354945E
c0131a50 T _ZN4core3ptr9alignment9Alignment3new17h7b915afa31b8794bE
c0131ae0 t _ZN4core3ptr9alignment9Alignment13new_unchecked17h0af0fb15ba6cdd85E
c0131b30 T _ZN4core3ptr9alignment9Alignment8as_usize17haa9793cbd81696a8E
c0131b40 T _ZN4core3ptr9const_ptr33_$LT$impl$u20$$BP$const$u20$T$GT$7is_null17h0e3a1563e450d72dE
c0131b70 T _ZN4core3ptr9const_ptr33_$LT$impl$u20$$BP$const$u20$T$GT$20offset_from_unsigned17hce09fbb6676b8066E
c0131c20 T _ZN4core3ptr9const_ptr33_$LT$impl$u20$$BP$const$u20$T$GT$20offset_from_unsigned14runtime_ptr_ge17h0f07b755d7976a5fE
c0131c50 t _ZN4core3ptr9const_ptr33_$LT$impl$u20$$BP$const$u20$T$GT$3add18runtime_add_nowrap17he0b9b77ffc58a640E
c0131ca0 T _ZN4core3ptr9const_ptr33_$LT$impl$u20$$BP$const$u20$T$GT$12align_offset17hf60419e4c6a90aabE
c0131d70 T _ZN4core3ptr9const_ptr33_$LT$impl$u20$$BP$const$u20$T$GT$13is_aligned_to17h7bcc3af6d54c1d97E
c0131e60 T _ZN4core3ptr9const_ptr43_$LT$impl$u20$$BP$const$u20$$u5b$T$u5d$$GT$3len17h7e1be451a23c7267E
c0131ea0 T _ZN4core3ptr9const_ptr43_$LT$impl$u20$$BP$const$u20$$u5b$T$u5d$$GT$3len17hbfb8532d772bf454E
c0131ee0 T _ZN4core3ptr9const_ptr43_$LT$impl$u20$$BP$const$u20$$u5b$T$u5d$$GT$6as_ptr17h5f469563b8c3983aE
c0131f00 T _ZN4core3ptr7mut_ptr31_$LT$impl$u20$$BP$mut$u20$T$GT$20offset_from_unsigned17h7fde9c6fd80e7d74E
c0131f30 t _ZN4core3ptr7mut_ptr31_$LT$impl$u20$$BP$mut$u20$T$GT$3add18runtime_add_nowrap17h516e00e2357d19bdE
c0131f80 T _ZN4core3ptr20slice_from_raw_parts17h615ed603714d4c63E
c0131fb0 T _ZN4core3ptr20slice_from_raw_parts17hce453bb642619db5E
c0131fe0 T _ZN4core3ptr20slice_from_raw_parts17hd2b6c4a4cbeb8d24E
c0132010 T _ZN4core3ptr24slice_from_raw_parts_mut17h0c6c6b3874f35689E
c0132040 T _ZN4core3ptr12align_offset17he73e154f895b69caE
c0132220 t _ZN4core3ptr12align_offset7mod_inv17h94b9ed709289caceE
c0132310 T _ZN4core9ub_checks17check_language_ub17ha9444e9fd097607aE
c0132340 T _ZN4core9ub_checks29maybe_is_aligned_and_not_null17h20b14f1dc8c1a358E
c01323a0 T _ZN4core9ub_checks24is_valid_allocation_size17h1c3d3dcf99c4adaeE
c0132420 t _ZN4core4char7convert18from_u32_unchecked17he701313a8c432779E
c0132470 t _ZN4core4char7convert17char_try_from_u3217hd48b3765f0b5bf65E
c01324b0 T _ZN4core4char7methods22_$LT$impl$u20$char$GT$18from_u32_unchecked17hd5c9c07ee1072248E
c01324d0 T _ZN4core4char7methods22_$LT$impl$u20$char$GT$11encode_utf817h319a1c5d87475d59E
c0132520 t _ZN4core4char7methods8len_utf817h14be9ebb3c94ecd8E
c0132580 t _ZN4core4char7methods15encode_utf8_raw17hd7b03165feeb665bE
c0132670 t _ZN4core4char7methods25encode_utf8_raw_unchecked17h73cb106fc4904187E
c0132920 T _ZN4core5panic10panic_info9PanicInfo3new17h36339bda3d282266E
c0132970 T _ZN73_$LT$core..panic..panic_info..PanicInfo$u20$as$u20$core..fmt..Display$GT$3fmt17h16aaa5220579218dE
c0132b40 t _ZN4core4hint21unreachable_unchecked18precondition_check17h88a74a42dbe3ffdaE
c0132b70 T _ZN4core4hint16assert_unchecked18precondition_check17hf53ae968e8884fbdE
c0132bc0 t _ZN4core3ptr9alignment9Alignment13new_unchecked18precondition_check17h1b933c4b103c01b1E
c0132c40 t _ZN4core3ptr9const_ptr33_$LT$impl$u20$$BP$const$u20$T$GT$7is_null7runtime17h810a89a037c38fd7E
c0132c60 t _ZN4core3ptr9const_ptr33_$LT$impl$u20$$BP$const$u20$T$GT$20offset_from_unsigned14runtime_ptr_ge7runtime17h54c0f43458e8de77E
c0132c70 T _ZN4core3ptr9const_ptr33_$LT$impl$u20$$BP$const$u20$T$GT$20offset_from_unsigned18precondition_check17h23f5ecd8dd88e744E
c0132cc0 t _ZN4core3ptr9const_ptr33_$LT$impl$u20$$BP$const$u20$T$GT$3add18runtime_add_nowrap7runtime17h7573e04e01856190E
c0132d70 T _ZN4core3ptr9const_ptr33_$LT$impl$u20$$BP$const$u20$T$GT$3add18precondition_check17h3ee059f01d17bf0bE
c0132dd0 t _ZN4core3ptr7mut_ptr31_$LT$impl$u20$$BP$mut$u20$T$GT$3add18runtime_add_nowrap7runtime17h70a753e3696b14a0E
c0132e80 T _ZN4core3ptr7mut_ptr31_$LT$impl$u20$$BP$mut$u20$T$GT$3add18precondition_check17hb0b2f56ffcc18dc0E
c0132ee0 t _ZN4core9ub_checks17check_language_ub7runtime17ha8507d6997cc93f0E
c0132ef0 t _ZN4core9ub_checks29maybe_is_aligned_and_not_null7runtime17h98b26ccde1dcb398E
c0132f70 t _ZN4core4char7convert18from_u32_unchecked18precondition_check17h32c0069b8259bb42E
c0132fd0 T _ZN4core4char7methods15encode_utf8_raw8do_panic7runtime17h7b2706e43820edaaE
c01330e0 T _ZN4core3mem11size_of_val17hbd87021c62586675E
c0133110 T _ZN4core6option15Option$LT$T$GT$7is_some17h0320dbb21efe2be3E
c0133150 T _ZN4core6option15Option$LT$T$GT$7is_some17h07fb180a64bafabeE
c0133190 T _ZN4core6option15Option$LT$T$GT$7is_some17hf6cd6d7581eb6df2E
c01331a0 T _ZN4core6option15Option$LT$T$GT$11is_some_and17h220ef2d9ec5b0241E
c0133230 T _ZN4core6option15Option$LT$T$GT$7is_none17h23070b9090f4b45cE
c0133260 T _ZN4core6option15Option$LT$T$GT$7is_none17h87069a27f2d3986bE
c0133290 T _ZN4core6option15Option$LT$T$GT$6as_mut17hcf46acb337ed5dd6E
c01332e0 T _ZN4core6option15Option$LT$T$GT$9unwrap_or17h20add9691addf1edE
c0133350 T _ZN4core6option15Option$LT$T$GT$16unwrap_unchecked17h014615e9ec602ad5E
c01333a0 T _ZN4core6option15Option$LT$T$GT$16unwrap_unchecked17h03a78386cec320b0E
c0133400 T _ZN4core6option15Option$LT$T$GT$16unwrap_unchecked17hd3416370f7e395aeE
c0133460 T _ZN4core6option15Option$LT$T$GT$3map17hdfb4a88b3b1b41bfE
c01334e0 T _ZN4core6option15Option$LT$T$GT$6insert17h67a889888ef1fbf6E
c0133550 T _ZN4core6option13unwrap_failed17h257b7675388a283dE
c0133580 T _ZN4core6option13expect_failed17hf17223e1e4d5d5a0E
c01335c0 T _ZN75_$LT$core..option..Option$LT$T$GT$$u20$as$u20$core..ops..try_trait..Try$GT$6branch17h50c0f006066154aeE
c0133610 T _ZN75_$LT$core..option..Option$LT$T$GT$$u20$as$u20$core..ops..try_trait..Try$GT$6branch17h5ec5aafaee4ca0e3E
c0133660 T _ZN75_$LT$core..option..Option$LT$T$GT$$u20$as$u20$core..ops..try_trait..Try$GT$6branch17h78403acff6ca1693E
c01336d0 T _ZN75_$LT$core..option..Option$LT$T$GT$$u20$as$u20$core..ops..try_trait..Try$GT$6branch17hb9645916463143b9E
c0133720 T _ZN75_$LT$core..option..Option$LT$T$GT$$u20$as$u20$core..ops..try_trait..Try$GT$6branch17hd2812f970758ca42E
c0133770 T _ZN145_$LT$core..option..Option$LT$T$GT$$u20$as$u20$core..ops..try_trait..FromResidual$LT$core..option..Option$LT$core..convert..Infallible$GT$$GT$$GT$13from_residual17h42d8c9a73a65938cE
c0133790 T _ZN145_$LT$core..option..Option$LT$T$GT$$u20$as$u20$core..ops..try_trait..FromResidual$LT$core..option..Option$LT$core..convert..Infallible$GT$$GT$$GT$13from_residual17h816bea33b45533e9E
c01337b0 T _ZN145_$LT$core..option..Option$LT$T$GT$$u20$as$u20$core..ops..try_trait..FromResidual$LT$core..option..Option$LT$core..convert..Infallible$GT$$GT$$GT$13from_residual17h8eb80b825265947fE
c01337d0 T _ZN145_$LT$core..option..Option$LT$T$GT$$u20$as$u20$core..ops..try_trait..FromResidual$LT$core..option..Option$LT$core..convert..Infallible$GT$$GT$$GT$13from_residual17hb46ee8032214ad90E
c01337f0 T _ZN4core3num9int_log1030panic_for_nonpositive_argument17hfbae83600745281aE
c0133840 T _ZN4core5slice3raw14from_raw_parts17h8a1f4f6c98f4d965E
c01338c0 T _ZN4core5slice3raw14from_raw_parts17ha5d460e3eff2c5f1E
c0133940 T _ZN4core5slice3raw14from_raw_parts17hf6bdb2b5ae22548fE
c01339c0 T _ZN4core5slice3raw18from_raw_parts_mut17hd57f99e63f8e27bcE
c0133a40 T _ZN4core5slice29_$LT$impl$u20$$u5b$T$u5d$$GT$8is_empty17haaee01acf0baa859E
c0133a60 T _ZN4core5slice29_$LT$impl$u20$$u5b$T$u5d$$GT$3get17h5b218191138787cbE
c0133aa0 T _ZN4core5slice29_$LT$impl$u20$$u5b$T$u5d$$GT$3get17h8fe4df4ad9be9610E
c0133af0 T _ZN4core5slice29_$LT$impl$u20$$u5b$T$u5d$$GT$13get_unchecked17hd5b22eeb4214ec58E
c0133b30 T _ZN4core5slice29_$LT$impl$u20$$u5b$T$u5d$$GT$13get_unchecked17he11b13b133471bdfE
c0133b70 T _ZN4core5slice29_$LT$impl$u20$$u5b$T$u5d$$GT$4iter17h000d1b4e8d9366b9E
c0133bb0 T _ZN4core5slice29_$LT$impl$u20$$u5b$T$u5d$$GT$4iter17h15687950bdbcbe6bE
c0133bf0 T _ZN4core5slice29_$LT$impl$u20$$u5b$T$u5d$$GT$4iter17h8894457a749f11d3E
c0133c30 T _ZN4core5slice29_$LT$impl$u20$$u5b$T$u5d$$GT$6chunks17h57b6d38ef162562fE
c0133cf0 T _ZN4core5slice29_$LT$impl$u20$$u5b$T$u5d$$GT$19as_chunks_unchecked17hc97c4d59a8f06427E
c0133d80 T _ZN4core5slice29_$LT$impl$u20$$u5b$T$u5d$$GT$9as_chunks17hcbf48322061271ddE
c0133e90 T _ZN4core5slice29_$LT$impl$u20$$u5b$T$u5d$$GT$8split_at17h2af8552aeab44a6cE
c0133f80 T _ZN4core5slice29_$LT$impl$u20$$u5b$T$u5d$$GT$8split_at17h4e1c84150ccf6288E
c0134070 T _ZN4core5slice29_$LT$impl$u20$$u5b$T$u5d$$GT$18split_at_unchecked17hbc7316848c8de37cE
c0134190 T _ZN4core5slice29_$LT$impl$u20$$u5b$T$u5d$$GT$18split_at_unchecked17hdb1377761bce9307E
c01342b0 T _ZN4core5slice29_$LT$impl$u20$$u5b$T$u5d$$GT$16split_at_checked17h4a7609f5259d4789E
c0134360 T _ZN4core5slice29_$LT$impl$u20$$u5b$T$u5d$$GT$16split_at_checked17h8b1fb9bf56d73cdbE
c0134410 T _ZN4core5slice29_$LT$impl$u20$$u5b$T$u5d$$GT$9ends_with17h76f913d8cb49e731E
c0134500 T _ZN4core5slice29_$LT$impl$u20$$u5b$T$u5d$$GT$16align_to_offsets17hf8c65fa2fe08c07dE
c01345e0 T _ZN4core5slice29_$LT$impl$u20$$u5b$T$u5d$$GT$8align_to17h2da5f11d02bee177E
c0134840 t _ZN4core3str11validations15utf8_first_byte17h096c79bf04d44451E
c01348a0 t _ZN4core3str11validations18utf8_acc_cont_byte17h6fca3b0bc2522158E
c01348c0 T _ZN4core3str11validations17utf8_is_cont_byte17h149c50bbdabf594aE
c01348d0 T _ZN4core3str11validations15next_code_point17h1400a5b70b7193d3E
c0134af0 T _ZN4core3str21_$LT$impl$u20$str$GT$3len17h408475ab93628e58E
c0134b10 T _ZN4core3str21_$LT$impl$u20$str$GT$8is_empty17h009706de38fbc26aE
c0134b50 T _ZN4core3str21_$LT$impl$u20$str$GT$13get_unchecked17h16a0ae87cf2015e5E
c0134ba0 T _ZN4core3str21_$LT$impl$u20$str$GT$13get_unchecked17ha0de37dfafa7be55E
c0134be0 T _ZN4core3str21_$LT$impl$u20$str$GT$5chars17h17dbb749c94e35bfE
c0134c20 T _ZN4core3str21_$LT$impl$u20$str$GT$12char_indices17hda0a3884667011ddE
c0134c80 T _ZN4core3str21_$LT$impl$u20$str$GT$9ends_with17heceb19e3956a4ed1E
c0134cc0 T _ZN4core3str21_$LT$impl$u20$str$GT$15split_inclusive17h16dd2e8ac030a05eE
c0134db0 T _ZN4core9panicking11panic_const24panic_const_add_overflow17h6cc29585634f6b6dE
c0134e00 T _ZN4core9panicking11panic_const24panic_const_sub_overflow17h511f226b229f51bcE
c0134e50 T _ZN4core9panicking11panic_const24panic_const_mul_overflow17hcb9c299513a29dd8E
c0134ea0 T _ZN4core9panicking11panic_const24panic_const_div_overflow17h4328ef9ebb3875deE
c0134ef0 T _ZN4core9panicking11panic_const24panic_const_neg_overflow17hb2c451f53cf3d328E
c0134f40 T _ZN4core9panicking11panic_const24panic_const_shr_overflow17h30e9a0be64d6db4cE
c0134f90 T _ZN4core9panicking11panic_const24panic_const_shl_overflow17h782d6cc05be90479E
c0134fe0 T _ZN4core9panicking11panic_const23panic_const_div_by_zero17hde72647348c25483E
c0135030 T _ZN4core9panicking11panic_const23panic_const_rem_by_zero17h31da4ccaa781e7bcE
c0135080 t _ZN4core5slice3raw14from_raw_parts18precondition_check17h670be04aae93ff49E
c0135110 t _ZN4core5slice3raw18from_raw_parts_mut18precondition_check17h91f914719d4e3936E
c01351a0 t _ZN4core5slice29_$LT$impl$u20$$u5b$T$u5d$$GT$19as_chunks_unchecked18precondition_check17he020dc673a131b0cE
c0135220 t _ZN4core5slice29_$LT$impl$u20$$u5b$T$u5d$$GT$18split_at_unchecked18precondition_check17h1e2af91e35d63dbbE
c0135260 T _ZN4core3num21_$LT$impl$u20$u32$GT$13unchecked_add18precondition_check17h5aa2dec532ef2709E
c0135290 T _ZN4core3fmt9Arguments9new_const17hfd3431dcdcdfc1aaE
c01352e0 T _ZN4core4iter5range101_$LT$impl$u20$core..iter..traits..iterator..Iterator$u20$for$u20$core..ops..range..Range$LT$A$GT$$GT$4next17h3ce9977fd71d8df9E
c0135300 T _ZN63_$LT$I$u20$as$u20$core..iter..traits..collect..IntoIterator$GT$9into_iter17he8948bc018e3b860E
c0135320 T _ZN89_$LT$core..ops..range..Range$LT$T$GT$$u20$as$u20$core..iter..range..RangeIteratorImpl$GT$9spec_next17h2d482e1530d4f007E
c01353b0 T _ZN17compiler_builtins3mem5impls20read_usize_unaligned17hd7350dd592ea7e4aE
c01353f0 T _ZN17compiler_builtins3mem6memcpy17h7fda312acdefc866E
c01359f0 T _ZN17compiler_builtins3mem6memset17hde0041c165c2ac67E
c0135de0 T _ZN17compiler_builtins3mem6memcmp17h859babb68f92119dE
c0135ed0 T _ZN4core3ptr4read17h2a67c3413fb79075E
c0135f30 t _ZN4core3ptr4read18precondition_check17h67a2bb7f19a951d1E
c0135f80 T _ZN4core9ub_checks17check_language_ub17hd64b48fe38c90c2fE
c0135fb0 t _ZN4core9ub_checks17check_language_ub7runtime17hf6aacdf1e6b44a52E
c0135fc0 T _ZN4core9ub_checks29maybe_is_aligned_and_not_null17h89625ee744a888d1E
c0136020 t _ZN4core9ub_checks29maybe_is_aligned_and_not_null7runtime17h4276db2abbaf511aE
c01360a0 T _ZN47_$LT$u32$u20$as$u20$core..iter..range..Step$GT$17forward_unchecked17h180a65ca95874ba8E
c0136100 T _ZN4core3ptr9const_ptr33_$LT$impl$u20$$BP$const$u20$T$GT$13is_aligned_to17h3aca5741f52a005aE
c01361c0 T _ZN4core3ptr9const_ptr33_$LT$impl$u20$$BP$const$u20$T$GT$4read17h7545777f4363b135E
c0136200 T _ZN4core3ptr9const_ptr33_$LT$impl$u20$$BP$const$u20$T$GT$7is_null17h3ec38b55dbf25161E
c0136230 t _ZN4core3ptr9const_ptr33_$LT$impl$u20$$BP$const$u20$T$GT$7is_null7runtime17hd7200b4fc0992cc4E
c0136250 W memcpy
c0136290 W memset
c01362d0 W memcmp
c013c4fc d _GLOBAL_OFFSET_TABLE_
c013d000 D data_start
c013d010 d _ZN5satan4arch3x866memory14PAGE_ALLOCATOR17h58ac559338ec88dfE
c013d250 d _ZN5satan4arch3x8612early_logger6WRITER17he8b0d0c0a28ff95eE
c013e000 d gdt_null
c013e000 d gdt_start
c013e008 d gdt_code
c013e010 d gdt_data
c013e018 d gdt_tss
c013e020 d gdt_descriptor
c013e020 d gdt_end
c013f000 D kernel_top_level_page_table
c0140000 d kernel_page_table_bootstrap
c0141000 d kernel_page_tables_higher_half
c0143000 D kernel_tmp_page_entry_address
c0144474 d _ZN5satan4arch3x869allocator9ALLOCATOR17h82672353759fa583E
c0144e94 D _ZN4core3fmt3num14DEC_DIGITS_LUT17h9a7d366bb4d7daf3E
c0145858 d _ZN5satan4arch3x8610interrupts3IDT17h1ee31b250e2d5569E
c0146058 d _ZN5satan4arch3x8610interrupts4IDTR17h589142940dcbb7f5E
c014605e d _ZN5satan4arch3x869allocator5ARENA17h87426ed0e8c10265E
c014705e D _RNvCsW2kLHQHBa7_7___rustc39___rust_alloc_error_handler_should_panic
c014705f D __rust_no_alloc_shim_is_unstable
c0147060 d bootstrap_stack
c014b060 d bootstrap_stack_top
c014b060 d tss_stack
c014f060 D kernel_end
c014f060 d tss_stack_top
c0150000 D kernel_tmp_page_address
c0151000 kernel_reserved_end
e85250d6 a HEADER_MAGIC
